Archive member included to satisfy reference by file (symbol)

C:\Users\wesle\e2_studio\workspace\hello_world_basic\synergy\ssp\src\driver\r_fmi\libs\libfmi_cm4_s7g2_gcc.a(r_fmi.o)
                              ./synergy/ssp/src/driver/r_ioport/r_ioport.o (g_fmi_on_fmi)
C:\Users\wesle\e2_studio\workspace\hello_world_basic\synergy\ssp\src\bsp\mcu\s7g2\libfmi_R7FS7G27H3A01CFC_gcc.a(bsp_fmi_R7FS7G27H3A01CFC.o)
                              C:\Users\wesle\e2_studio\workspace\hello_world_basic\synergy\ssp\src\driver\r_fmi\libs\libfmi_cm4_s7g2_gcc.a(r_fmi.o) (g_fmi_data)
c:/renesas/synergy/e2studio_v2022-04_ssp_v2.3.0/toolchains/gcc_arm/gcc-arm-none-eabi-10.3-2021.10/bin/../lib/gcc/arm-none-eabi/10.3.1/../../../../arm-none-eabi/lib/thumb/v7e-m+fp/hard\libg_nano.a(lib_a-errno.o)
                              ./synergy/ssp/src/bsp/mcu/all/bsp_sbrk.o (__errno)
c:/renesas/synergy/e2studio_v2022-04_ssp_v2.3.0/toolchains/gcc_arm/gcc-arm-none-eabi-10.3-2021.10/bin/../lib/gcc/arm-none-eabi/10.3.1/../../../../arm-none-eabi/lib/thumb/v7e-m+fp/hard\libg_nano.a(lib_a-exit.o)
                              c:/renesas/synergy/e2studio_v2022-04_ssp_v2.3.0/toolchains/gcc_arm/gcc-arm-none-eabi-10.3-2021.10/bin/../lib/gcc/arm-none-eabi/10.3.1/../../../../arm-none-eabi/lib/thumb/v7e-m+fp/hard/rdimon-crt0.o (exit)
c:/renesas/synergy/e2studio_v2022-04_ssp_v2.3.0/toolchains/gcc_arm/gcc-arm-none-eabi-10.3-2021.10/bin/../lib/gcc/arm-none-eabi/10.3.1/../../../../arm-none-eabi/lib/thumb/v7e-m+fp/hard\libg_nano.a(lib_a-impure.o)
                              c:/renesas/synergy/e2studio_v2022-04_ssp_v2.3.0/toolchains/gcc_arm/gcc-arm-none-eabi-10.3-2021.10/bin/../lib/gcc/arm-none-eabi/10.3.1/../../../../arm-none-eabi/lib/thumb/v7e-m+fp/hard\libg_nano.a(lib_a-exit.o) (_global_impure_ptr)
c:/renesas/synergy/e2studio_v2022-04_ssp_v2.3.0/toolchains/gcc_arm/gcc-arm-none-eabi-10.3-2021.10/bin/../lib/gcc/arm-none-eabi/10.3.1/../../../../arm-none-eabi/lib/thumb/v7e-m+fp/hard\libg_nano.a(lib_a-init.o)
                              c:/renesas/synergy/e2studio_v2022-04_ssp_v2.3.0/toolchains/gcc_arm/gcc-arm-none-eabi-10.3-2021.10/bin/../lib/gcc/arm-none-eabi/10.3.1/../../../../arm-none-eabi/lib/thumb/v7e-m+fp/hard/rdimon-crt0.o (__libc_init_array)
c:/renesas/synergy/e2studio_v2022-04_ssp_v2.3.0/toolchains/gcc_arm/gcc-arm-none-eabi-10.3-2021.10/bin/../lib/gcc/arm-none-eabi/10.3.1/../../../../arm-none-eabi/lib/thumb/v7e-m+fp/hard\libg_nano.a(lib_a-memcpy-stub.o)
                              ./synergy/ssp/src/bsp/cmsis/Device/RENESAS/S7G2/Source/system_S7G2.o (memcpy)
c:/renesas/synergy/e2studio_v2022-04_ssp_v2.3.0/toolchains/gcc_arm/gcc-arm-none-eabi-10.3-2021.10/bin/../lib/gcc/arm-none-eabi/10.3.1/../../../../arm-none-eabi/lib/thumb/v7e-m+fp/hard\libg_nano.a(lib_a-memset.o)
                              c:/renesas/synergy/e2studio_v2022-04_ssp_v2.3.0/toolchains/gcc_arm/gcc-arm-none-eabi-10.3-2021.10/bin/../lib/gcc/arm-none-eabi/10.3.1/../../../../arm-none-eabi/lib/thumb/v7e-m+fp/hard/rdimon-crt0.o (memset)
c:/renesas/synergy/e2studio_v2022-04_ssp_v2.3.0/toolchains/gcc_arm/gcc-arm-none-eabi-10.3-2021.10/bin/../lib/gcc/arm-none-eabi/10.3.1/../../../../arm-none-eabi/lib/thumb/v7e-m+fp/hard\libg_nano.a(lib_a-rand.o)
                              ./synergy/ssp/src/bsp/cmsis/Device/RENESAS/S7G2/Source/system_S7G2.o (srand)
c:/renesas/synergy/e2studio_v2022-04_ssp_v2.3.0/toolchains/gcc_arm/gcc-arm-none-eabi-10.3-2021.10/bin/../lib/gcc/arm-none-eabi/10.3.1/../../../../arm-none-eabi/lib/thumb/v7e-m+fp/hard\libg_nano.a(lib_a-assert.o)
                              c:/renesas/synergy/e2studio_v2022-04_ssp_v2.3.0/toolchains/gcc_arm/gcc-arm-none-eabi-10.3-2021.10/bin/../lib/gcc/arm-none-eabi/10.3.1/../../../../arm-none-eabi/lib/thumb/v7e-m+fp/hard\libg_nano.a(lib_a-rand.o) (__assert_func)
c:/renesas/synergy/e2studio_v2022-04_ssp_v2.3.0/toolchains/gcc_arm/gcc-arm-none-eabi-10.3-2021.10/bin/../lib/gcc/arm-none-eabi/10.3.1/../../../../arm-none-eabi/lib/thumb/v7e-m+fp/hard\libg_nano.a(lib_a-fprintf.o)
                              c:/renesas/synergy/e2studio_v2022-04_ssp_v2.3.0/toolchains/gcc_arm/gcc-arm-none-eabi-10.3-2021.10/bin/../lib/gcc/arm-none-eabi/10.3.1/../../../../arm-none-eabi/lib/thumb/v7e-m+fp/hard\libg_nano.a(lib_a-assert.o) (fiprintf)
c:/renesas/synergy/e2studio_v2022-04_ssp_v2.3.0/toolchains/gcc_arm/gcc-arm-none-eabi-10.3-2021.10/bin/../lib/gcc/arm-none-eabi/10.3.1/../../../../arm-none-eabi/lib/thumb/v7e-m+fp/hard\libg_nano.a(lib_a-malloc.o)
                              c:/renesas/synergy/e2studio_v2022-04_ssp_v2.3.0/toolchains/gcc_arm/gcc-arm-none-eabi-10.3-2021.10/bin/../lib/gcc/arm-none-eabi/10.3.1/../../../../arm-none-eabi/lib/thumb/v7e-m+fp/hard\libg_nano.a(lib_a-rand.o) (malloc)
c:/renesas/synergy/e2studio_v2022-04_ssp_v2.3.0/toolchains/gcc_arm/gcc-arm-none-eabi-10.3-2021.10/bin/../lib/gcc/arm-none-eabi/10.3.1/../../../../arm-none-eabi/lib/thumb/v7e-m+fp/hard\libg_nano.a(lib_a-nano-freer.o)
                              c:/renesas/synergy/e2studio_v2022-04_ssp_v2.3.0/toolchains/gcc_arm/gcc-arm-none-eabi-10.3-2021.10/bin/../lib/gcc/arm-none-eabi/10.3.1/../../../../arm-none-eabi/lib/thumb/v7e-m+fp/hard\libg_nano.a(lib_a-malloc.o) (_free_r)
c:/renesas/synergy/e2studio_v2022-04_ssp_v2.3.0/toolchains/gcc_arm/gcc-arm-none-eabi-10.3-2021.10/bin/../lib/gcc/arm-none-eabi/10.3.1/../../../../arm-none-eabi/lib/thumb/v7e-m+fp/hard\libg_nano.a(lib_a-nano-mallocr.o)
                              c:/renesas/synergy/e2studio_v2022-04_ssp_v2.3.0/toolchains/gcc_arm/gcc-arm-none-eabi-10.3-2021.10/bin/../lib/gcc/arm-none-eabi/10.3.1/../../../../arm-none-eabi/lib/thumb/v7e-m+fp/hard\libg_nano.a(lib_a-malloc.o) (_malloc_r)
c:/renesas/synergy/e2studio_v2022-04_ssp_v2.3.0/toolchains/gcc_arm/gcc-arm-none-eabi-10.3-2021.10/bin/../lib/gcc/arm-none-eabi/10.3.1/../../../../arm-none-eabi/lib/thumb/v7e-m+fp/hard\libg_nano.a(lib_a-nano-vfprintf.o)
                              c:/renesas/synergy/e2studio_v2022-04_ssp_v2.3.0/toolchains/gcc_arm/gcc-arm-none-eabi-10.3-2021.10/bin/../lib/gcc/arm-none-eabi/10.3.1/../../../../arm-none-eabi/lib/thumb/v7e-m+fp/hard\libg_nano.a(lib_a-fprintf.o) (_vfprintf_r)
c:/renesas/synergy/e2studio_v2022-04_ssp_v2.3.0/toolchains/gcc_arm/gcc-arm-none-eabi-10.3-2021.10/bin/../lib/gcc/arm-none-eabi/10.3.1/../../../../arm-none-eabi/lib/thumb/v7e-m+fp/hard\libg_nano.a(lib_a-nano-vfprintf_i.o)
                              c:/renesas/synergy/e2studio_v2022-04_ssp_v2.3.0/toolchains/gcc_arm/gcc-arm-none-eabi-10.3-2021.10/bin/../lib/gcc/arm-none-eabi/10.3.1/../../../../arm-none-eabi/lib/thumb/v7e-m+fp/hard\libg_nano.a(lib_a-nano-vfprintf.o) (_printf_i)
c:/renesas/synergy/e2studio_v2022-04_ssp_v2.3.0/toolchains/gcc_arm/gcc-arm-none-eabi-10.3-2021.10/bin/../lib/gcc/arm-none-eabi/10.3.1/../../../../arm-none-eabi/lib/thumb/v7e-m+fp/hard\libg_nano.a(lib_a-sbrkr.o)
                              c:/renesas/synergy/e2studio_v2022-04_ssp_v2.3.0/toolchains/gcc_arm/gcc-arm-none-eabi-10.3-2021.10/bin/../lib/gcc/arm-none-eabi/10.3.1/../../../../arm-none-eabi/lib/thumb/v7e-m+fp/hard\libg_nano.a(lib_a-nano-mallocr.o) (_sbrk_r)
c:/renesas/synergy/e2studio_v2022-04_ssp_v2.3.0/toolchains/gcc_arm/gcc-arm-none-eabi-10.3-2021.10/bin/../lib/gcc/arm-none-eabi/10.3.1/../../../../arm-none-eabi/lib/thumb/v7e-m+fp/hard\libg_nano.a(lib_a-wbuf.o)
                              c:/renesas/synergy/e2studio_v2022-04_ssp_v2.3.0/toolchains/gcc_arm/gcc-arm-none-eabi-10.3-2021.10/bin/../lib/gcc/arm-none-eabi/10.3.1/../../../../arm-none-eabi/lib/thumb/v7e-m+fp/hard\libg_nano.a(lib_a-nano-vfprintf.o) (__swbuf_r)
c:/renesas/synergy/e2studio_v2022-04_ssp_v2.3.0/toolchains/gcc_arm/gcc-arm-none-eabi-10.3-2021.10/bin/../lib/gcc/arm-none-eabi/10.3.1/../../../../arm-none-eabi/lib/thumb/v7e-m+fp/hard\libg_nano.a(lib_a-wsetup.o)
                              c:/renesas/synergy/e2studio_v2022-04_ssp_v2.3.0/toolchains/gcc_arm/gcc-arm-none-eabi-10.3-2021.10/bin/../lib/gcc/arm-none-eabi/10.3.1/../../../../arm-none-eabi/lib/thumb/v7e-m+fp/hard\libg_nano.a(lib_a-nano-vfprintf.o) (__swsetup_r)
c:/renesas/synergy/e2studio_v2022-04_ssp_v2.3.0/toolchains/gcc_arm/gcc-arm-none-eabi-10.3-2021.10/bin/../lib/gcc/arm-none-eabi/10.3.1/../../../../arm-none-eabi/lib/thumb/v7e-m+fp/hard\libg_nano.a(lib_a-abort.o)
                              c:/renesas/synergy/e2studio_v2022-04_ssp_v2.3.0/toolchains/gcc_arm/gcc-arm-none-eabi-10.3-2021.10/bin/../lib/gcc/arm-none-eabi/10.3.1/../../../../arm-none-eabi/lib/thumb/v7e-m+fp/hard\libg_nano.a(lib_a-assert.o) (abort)
c:/renesas/synergy/e2studio_v2022-04_ssp_v2.3.0/toolchains/gcc_arm/gcc-arm-none-eabi-10.3-2021.10/bin/../lib/gcc/arm-none-eabi/10.3.1/../../../../arm-none-eabi/lib/thumb/v7e-m+fp/hard\libg_nano.a(lib_a-fflush.o)
                              c:/renesas/synergy/e2studio_v2022-04_ssp_v2.3.0/toolchains/gcc_arm/gcc-arm-none-eabi-10.3-2021.10/bin/../lib/gcc/arm-none-eabi/10.3.1/../../../../arm-none-eabi/lib/thumb/v7e-m+fp/hard\libg_nano.a(lib_a-wbuf.o) (_fflush_r)
c:/renesas/synergy/e2studio_v2022-04_ssp_v2.3.0/toolchains/gcc_arm/gcc-arm-none-eabi-10.3-2021.10/bin/../lib/gcc/arm-none-eabi/10.3.1/../../../../arm-none-eabi/lib/thumb/v7e-m+fp/hard\libg_nano.a(lib_a-findfp.o)
                              c:/renesas/synergy/e2studio_v2022-04_ssp_v2.3.0/toolchains/gcc_arm/gcc-arm-none-eabi-10.3-2021.10/bin/../lib/gcc/arm-none-eabi/10.3.1/../../../../arm-none-eabi/lib/thumb/v7e-m+fp/hard\libg_nano.a(lib_a-nano-vfprintf.o) (__sinit)
c:/renesas/synergy/e2studio_v2022-04_ssp_v2.3.0/toolchains/gcc_arm/gcc-arm-none-eabi-10.3-2021.10/bin/../lib/gcc/arm-none-eabi/10.3.1/../../../../arm-none-eabi/lib/thumb/v7e-m+fp/hard\libg_nano.a(lib_a-fvwrite.o)
                              c:/renesas/synergy/e2studio_v2022-04_ssp_v2.3.0/toolchains/gcc_arm/gcc-arm-none-eabi-10.3-2021.10/bin/../lib/gcc/arm-none-eabi/10.3.1/../../../../arm-none-eabi/lib/thumb/v7e-m+fp/hard\libg_nano.a(lib_a-nano-vfprintf.o) (__sfvwrite_r)
c:/renesas/synergy/e2studio_v2022-04_ssp_v2.3.0/toolchains/gcc_arm/gcc-arm-none-eabi-10.3-2021.10/bin/../lib/gcc/arm-none-eabi/10.3.1/../../../../arm-none-eabi/lib/thumb/v7e-m+fp/hard\libg_nano.a(lib_a-fwalk.o)
                              c:/renesas/synergy/e2studio_v2022-04_ssp_v2.3.0/toolchains/gcc_arm/gcc-arm-none-eabi-10.3-2021.10/bin/../lib/gcc/arm-none-eabi/10.3.1/../../../../arm-none-eabi/lib/thumb/v7e-m+fp/hard\libg_nano.a(lib_a-findfp.o) (_fwalk)
c:/renesas/synergy/e2studio_v2022-04_ssp_v2.3.0/toolchains/gcc_arm/gcc-arm-none-eabi-10.3-2021.10/bin/../lib/gcc/arm-none-eabi/10.3.1/../../../../arm-none-eabi/lib/thumb/v7e-m+fp/hard\libg_nano.a(lib_a-lock.o)
                              c:/renesas/synergy/e2studio_v2022-04_ssp_v2.3.0/toolchains/gcc_arm/gcc-arm-none-eabi-10.3-2021.10/bin/../lib/gcc/arm-none-eabi/10.3.1/../../../../arm-none-eabi/lib/thumb/v7e-m+fp/hard\libg_nano.a(lib_a-findfp.o) (__retarget_lock_init_recursive)
c:/renesas/synergy/e2studio_v2022-04_ssp_v2.3.0/toolchains/gcc_arm/gcc-arm-none-eabi-10.3-2021.10/bin/../lib/gcc/arm-none-eabi/10.3.1/../../../../arm-none-eabi/lib/thumb/v7e-m+fp/hard\libg_nano.a(lib_a-makebuf.o)
                              c:/renesas/synergy/e2studio_v2022-04_ssp_v2.3.0/toolchains/gcc_arm/gcc-arm-none-eabi-10.3-2021.10/bin/../lib/gcc/arm-none-eabi/10.3.1/../../../../arm-none-eabi/lib/thumb/v7e-m+fp/hard\libg_nano.a(lib_a-wsetup.o) (__smakebuf_r)
c:/renesas/synergy/e2studio_v2022-04_ssp_v2.3.0/toolchains/gcc_arm/gcc-arm-none-eabi-10.3-2021.10/bin/../lib/gcc/arm-none-eabi/10.3.1/../../../../arm-none-eabi/lib/thumb/v7e-m+fp/hard\libg_nano.a(lib_a-memchr.o)
                              c:/renesas/synergy/e2studio_v2022-04_ssp_v2.3.0/toolchains/gcc_arm/gcc-arm-none-eabi-10.3-2021.10/bin/../lib/gcc/arm-none-eabi/10.3.1/../../../../arm-none-eabi/lib/thumb/v7e-m+fp/hard\libg_nano.a(lib_a-nano-vfprintf.o) (memchr)
c:/renesas/synergy/e2studio_v2022-04_ssp_v2.3.0/toolchains/gcc_arm/gcc-arm-none-eabi-10.3-2021.10/bin/../lib/gcc/arm-none-eabi/10.3.1/../../../../arm-none-eabi/lib/thumb/v7e-m+fp/hard\libg_nano.a(lib_a-memmove.o)
                              c:/renesas/synergy/e2studio_v2022-04_ssp_v2.3.0/toolchains/gcc_arm/gcc-arm-none-eabi-10.3-2021.10/bin/../lib/gcc/arm-none-eabi/10.3.1/../../../../arm-none-eabi/lib/thumb/v7e-m+fp/hard\libg_nano.a(lib_a-fvwrite.o) (memmove)
c:/renesas/synergy/e2studio_v2022-04_ssp_v2.3.0/toolchains/gcc_arm/gcc-arm-none-eabi-10.3-2021.10/bin/../lib/gcc/arm-none-eabi/10.3.1/../../../../arm-none-eabi/lib/thumb/v7e-m+fp/hard\libg_nano.a(lib_a-mlock.o)
                              c:/renesas/synergy/e2studio_v2022-04_ssp_v2.3.0/toolchains/gcc_arm/gcc-arm-none-eabi-10.3-2021.10/bin/../lib/gcc/arm-none-eabi/10.3.1/../../../../arm-none-eabi/lib/thumb/v7e-m+fp/hard\libg_nano.a(lib_a-nano-freer.o) (__malloc_lock)
c:/renesas/synergy/e2studio_v2022-04_ssp_v2.3.0/toolchains/gcc_arm/gcc-arm-none-eabi-10.3-2021.10/bin/../lib/gcc/arm-none-eabi/10.3.1/../../../../arm-none-eabi/lib/thumb/v7e-m+fp/hard\libg_nano.a(lib_a-nano-reallocr.o)
                              c:/renesas/synergy/e2studio_v2022-04_ssp_v2.3.0/toolchains/gcc_arm/gcc-arm-none-eabi-10.3-2021.10/bin/../lib/gcc/arm-none-eabi/10.3.1/../../../../arm-none-eabi/lib/thumb/v7e-m+fp/hard\libg_nano.a(lib_a-fvwrite.o) (_realloc_r)
c:/renesas/synergy/e2studio_v2022-04_ssp_v2.3.0/toolchains/gcc_arm/gcc-arm-none-eabi-10.3-2021.10/bin/../lib/gcc/arm-none-eabi/10.3.1/../../../../arm-none-eabi/lib/thumb/v7e-m+fp/hard\libg_nano.a(lib_a-reent.o)
                              c:/renesas/synergy/e2studio_v2022-04_ssp_v2.3.0/toolchains/gcc_arm/gcc-arm-none-eabi-10.3-2021.10/bin/../lib/gcc/arm-none-eabi/10.3.1/../../../../arm-none-eabi/lib/thumb/v7e-m+fp/hard\libg_nano.a(lib_a-sbrkr.o) (errno)
c:/renesas/synergy/e2studio_v2022-04_ssp_v2.3.0/toolchains/gcc_arm/gcc-arm-none-eabi-10.3-2021.10/bin/../lib/gcc/arm-none-eabi/10.3.1/../../../../arm-none-eabi/lib/thumb/v7e-m+fp/hard\libg_nano.a(lib_a-signal.o)
                              c:/renesas/synergy/e2studio_v2022-04_ssp_v2.3.0/toolchains/gcc_arm/gcc-arm-none-eabi-10.3-2021.10/bin/../lib/gcc/arm-none-eabi/10.3.1/../../../../arm-none-eabi/lib/thumb/v7e-m+fp/hard\libg_nano.a(lib_a-abort.o) (raise)
c:/renesas/synergy/e2studio_v2022-04_ssp_v2.3.0/toolchains/gcc_arm/gcc-arm-none-eabi-10.3-2021.10/bin/../lib/gcc/arm-none-eabi/10.3.1/../../../../arm-none-eabi/lib/thumb/v7e-m+fp/hard\libg_nano.a(lib_a-signalr.o)
                              c:/renesas/synergy/e2studio_v2022-04_ssp_v2.3.0/toolchains/gcc_arm/gcc-arm-none-eabi-10.3-2021.10/bin/../lib/gcc/arm-none-eabi/10.3.1/../../../../arm-none-eabi/lib/thumb/v7e-m+fp/hard\libg_nano.a(lib_a-signal.o) (_kill_r)
c:/renesas/synergy/e2studio_v2022-04_ssp_v2.3.0/toolchains/gcc_arm/gcc-arm-none-eabi-10.3-2021.10/bin/../lib/gcc/arm-none-eabi/10.3.1/../../../../arm-none-eabi/lib/thumb/v7e-m+fp/hard\libg_nano.a(lib_a-stdio.o)
                              c:/renesas/synergy/e2studio_v2022-04_ssp_v2.3.0/toolchains/gcc_arm/gcc-arm-none-eabi-10.3-2021.10/bin/../lib/gcc/arm-none-eabi/10.3.1/../../../../arm-none-eabi/lib/thumb/v7e-m+fp/hard\libg_nano.a(lib_a-findfp.o) (__sread)
c:/renesas/synergy/e2studio_v2022-04_ssp_v2.3.0/toolchains/gcc_arm/gcc-arm-none-eabi-10.3-2021.10/bin/../lib/gcc/arm-none-eabi/10.3.1/../../../../arm-none-eabi/lib/thumb/v7e-m+fp/hard\libg_nano.a(lib_a-writer.o)
                              c:/renesas/synergy/e2studio_v2022-04_ssp_v2.3.0/toolchains/gcc_arm/gcc-arm-none-eabi-10.3-2021.10/bin/../lib/gcc/arm-none-eabi/10.3.1/../../../../arm-none-eabi/lib/thumb/v7e-m+fp/hard\libg_nano.a(lib_a-stdio.o) (_write_r)
c:/renesas/synergy/e2studio_v2022-04_ssp_v2.3.0/toolchains/gcc_arm/gcc-arm-none-eabi-10.3-2021.10/bin/../lib/gcc/arm-none-eabi/10.3.1/../../../../arm-none-eabi/lib/thumb/v7e-m+fp/hard\libg_nano.a(lib_a-closer.o)
                              c:/renesas/synergy/e2studio_v2022-04_ssp_v2.3.0/toolchains/gcc_arm/gcc-arm-none-eabi-10.3-2021.10/bin/../lib/gcc/arm-none-eabi/10.3.1/../../../../arm-none-eabi/lib/thumb/v7e-m+fp/hard\libg_nano.a(lib_a-stdio.o) (_close_r)
c:/renesas/synergy/e2studio_v2022-04_ssp_v2.3.0/toolchains/gcc_arm/gcc-arm-none-eabi-10.3-2021.10/bin/../lib/gcc/arm-none-eabi/10.3.1/../../../../arm-none-eabi/lib/thumb/v7e-m+fp/hard\libg_nano.a(lib_a-fstatr.o)
                              c:/renesas/synergy/e2studio_v2022-04_ssp_v2.3.0/toolchains/gcc_arm/gcc-arm-none-eabi-10.3-2021.10/bin/../lib/gcc/arm-none-eabi/10.3.1/../../../../arm-none-eabi/lib/thumb/v7e-m+fp/hard\libg_nano.a(lib_a-makebuf.o) (_fstat_r)
c:/renesas/synergy/e2studio_v2022-04_ssp_v2.3.0/toolchains/gcc_arm/gcc-arm-none-eabi-10.3-2021.10/bin/../lib/gcc/arm-none-eabi/10.3.1/../../../../arm-none-eabi/lib/thumb/v7e-m+fp/hard\libg_nano.a(lib_a-isattyr.o)
                              c:/renesas/synergy/e2studio_v2022-04_ssp_v2.3.0/toolchains/gcc_arm/gcc-arm-none-eabi-10.3-2021.10/bin/../lib/gcc/arm-none-eabi/10.3.1/../../../../arm-none-eabi/lib/thumb/v7e-m+fp/hard\libg_nano.a(lib_a-makebuf.o) (_isatty_r)
c:/renesas/synergy/e2studio_v2022-04_ssp_v2.3.0/toolchains/gcc_arm/gcc-arm-none-eabi-10.3-2021.10/bin/../lib/gcc/arm-none-eabi/10.3.1/../../../../arm-none-eabi/lib/thumb/v7e-m+fp/hard\libg_nano.a(lib_a-lseekr.o)
                              c:/renesas/synergy/e2studio_v2022-04_ssp_v2.3.0/toolchains/gcc_arm/gcc-arm-none-eabi-10.3-2021.10/bin/../lib/gcc/arm-none-eabi/10.3.1/../../../../arm-none-eabi/lib/thumb/v7e-m+fp/hard\libg_nano.a(lib_a-stdio.o) (_lseek_r)
c:/renesas/synergy/e2studio_v2022-04_ssp_v2.3.0/toolchains/gcc_arm/gcc-arm-none-eabi-10.3-2021.10/bin/../lib/gcc/arm-none-eabi/10.3.1/../../../../arm-none-eabi/lib/thumb/v7e-m+fp/hard\libg_nano.a(lib_a-nano-msizer.o)
                              c:/renesas/synergy/e2studio_v2022-04_ssp_v2.3.0/toolchains/gcc_arm/gcc-arm-none-eabi-10.3-2021.10/bin/../lib/gcc/arm-none-eabi/10.3.1/../../../../arm-none-eabi/lib/thumb/v7e-m+fp/hard\libg_nano.a(lib_a-nano-reallocr.o) (_malloc_usable_size_r)
c:/renesas/synergy/e2studio_v2022-04_ssp_v2.3.0/toolchains/gcc_arm/gcc-arm-none-eabi-10.3-2021.10/bin/../lib/gcc/arm-none-eabi/10.3.1/../../../../arm-none-eabi/lib/thumb/v7e-m+fp/hard\libg_nano.a(lib_a-readr.o)
                              c:/renesas/synergy/e2studio_v2022-04_ssp_v2.3.0/toolchains/gcc_arm/gcc-arm-none-eabi-10.3-2021.10/bin/../lib/gcc/arm-none-eabi/10.3.1/../../../../arm-none-eabi/lib/thumb/v7e-m+fp/hard\libg_nano.a(lib_a-stdio.o) (_read_r)
c:/renesas/synergy/e2studio_v2022-04_ssp_v2.3.0/toolchains/gcc_arm/gcc-arm-none-eabi-10.3-2021.10/bin/../lib/gcc/arm-none-eabi/10.3.1/../../../../arm-none-eabi/lib/thumb/v7e-m+fp/hard\librdimon_nano.a(rdimon-syscalls.o)
                              c:/renesas/synergy/e2studio_v2022-04_ssp_v2.3.0/toolchains/gcc_arm/gcc-arm-none-eabi-10.3-2021.10/bin/../lib/gcc/arm-none-eabi/10.3.1/../../../../arm-none-eabi/lib/thumb/v7e-m+fp/hard\libg_nano.a(lib_a-readr.o) (_read)
c:/renesas/synergy/e2studio_v2022-04_ssp_v2.3.0/toolchains/gcc_arm/gcc-arm-none-eabi-10.3-2021.10/bin/../lib/gcc/arm-none-eabi/10.3.1/../../../../arm-none-eabi/lib/thumb/v7e-m+fp/hard\librdimon_nano.a(rdimon-_exit.o)
                              c:/renesas/synergy/e2studio_v2022-04_ssp_v2.3.0/toolchains/gcc_arm/gcc-arm-none-eabi-10.3-2021.10/bin/../lib/gcc/arm-none-eabi/10.3.1/../../../../arm-none-eabi/lib/thumb/v7e-m+fp/hard\libg_nano.a(lib_a-exit.o) (_exit)
c:/renesas/synergy/e2studio_v2022-04_ssp_v2.3.0/toolchains/gcc_arm/gcc-arm-none-eabi-10.3-2021.10/bin/../lib/gcc/arm-none-eabi/10.3.1/../../../../arm-none-eabi/lib/thumb/v7e-m+fp/hard\librdimon_nano.a(rdimon-_kill.o)
                              c:/renesas/synergy/e2studio_v2022-04_ssp_v2.3.0/toolchains/gcc_arm/gcc-arm-none-eabi-10.3-2021.10/bin/../lib/gcc/arm-none-eabi/10.3.1/../../../../arm-none-eabi/lib/thumb/v7e-m+fp/hard\librdimon_nano.a(rdimon-_exit.o) (_kill_shared)
c:/renesas/synergy/e2studio_v2022-04_ssp_v2.3.0/toolchains/gcc_arm/gcc-arm-none-eabi-10.3-2021.10/bin/../lib/gcc/arm-none-eabi/10.3.1/../../../../arm-none-eabi/lib/thumb/v7e-m+fp/hard\libc_nano.a(lib_a-strlen.o)
                              c:/renesas/synergy/e2studio_v2022-04_ssp_v2.3.0/toolchains/gcc_arm/gcc-arm-none-eabi-10.3-2021.10/bin/../lib/gcc/arm-none-eabi/10.3.1/../../../../arm-none-eabi/lib/thumb/v7e-m+fp/hard\librdimon_nano.a(rdimon-syscalls.o) (strlen)

Discarded input sections

 .text          0x00000000        0x0 c:/renesas/synergy/e2studio_v2022-04_ssp_v2.3.0/toolchains/gcc_arm/gcc-arm-none-eabi-10.3-2021.10/bin/../lib/gcc/arm-none-eabi/10.3.1/thumb/v7e-m+fp/hard/crti.o
 .data          0x00000000        0x0 c:/renesas/synergy/e2studio_v2022-04_ssp_v2.3.0/toolchains/gcc_arm/gcc-arm-none-eabi-10.3-2021.10/bin/../lib/gcc/arm-none-eabi/10.3.1/thumb/v7e-m+fp/hard/crti.o
 .bss           0x00000000        0x0 c:/renesas/synergy/e2studio_v2022-04_ssp_v2.3.0/toolchains/gcc_arm/gcc-arm-none-eabi-10.3-2021.10/bin/../lib/gcc/arm-none-eabi/10.3.1/thumb/v7e-m+fp/hard/crti.o
 .data          0x00000000        0x4 c:/renesas/synergy/e2studio_v2022-04_ssp_v2.3.0/toolchains/gcc_arm/gcc-arm-none-eabi-10.3-2021.10/bin/../lib/gcc/arm-none-eabi/10.3.1/thumb/v7e-m+fp/hard/crtbegin.o
 .rodata        0x00000000       0x24 c:/renesas/synergy/e2studio_v2022-04_ssp_v2.3.0/toolchains/gcc_arm/gcc-arm-none-eabi-10.3-2021.10/bin/../lib/gcc/arm-none-eabi/10.3.1/thumb/v7e-m+fp/hard/crtbegin.o
 .text          0x00000000       0xf8 c:/renesas/synergy/e2studio_v2022-04_ssp_v2.3.0/toolchains/gcc_arm/gcc-arm-none-eabi-10.3-2021.10/bin/../lib/gcc/arm-none-eabi/10.3.1/../../../../arm-none-eabi/lib/thumb/v7e-m+fp/hard/rdimon-crt0.o
 .data          0x00000000      0x118 c:/renesas/synergy/e2studio_v2022-04_ssp_v2.3.0/toolchains/gcc_arm/gcc-arm-none-eabi-10.3-2021.10/bin/../lib/gcc/arm-none-eabi/10.3.1/../../../../arm-none-eabi/lib/thumb/v7e-m+fp/hard/rdimon-crt0.o
 .bss           0x00000000        0x0 c:/renesas/synergy/e2studio_v2022-04_ssp_v2.3.0/toolchains/gcc_arm/gcc-arm-none-eabi-10.3-2021.10/bin/../lib/gcc/arm-none-eabi/10.3.1/../../../../arm-none-eabi/lib/thumb/v7e-m+fp/hard/rdimon-crt0.o
 .ARM.extab     0x00000000        0x0 c:/renesas/synergy/e2studio_v2022-04_ssp_v2.3.0/toolchains/gcc_arm/gcc-arm-none-eabi-10.3-2021.10/bin/../lib/gcc/arm-none-eabi/10.3.1/../../../../arm-none-eabi/lib/thumb/v7e-m+fp/hard/rdimon-crt0.o
 .ARM.exidx     0x00000000       0x10 c:/renesas/synergy/e2studio_v2022-04_ssp_v2.3.0/toolchains/gcc_arm/gcc-arm-none-eabi-10.3-2021.10/bin/../lib/gcc/arm-none-eabi/10.3.1/../../../../arm-none-eabi/lib/thumb/v7e-m+fp/hard/rdimon-crt0.o
 .ARM.attributes
                0x00000000       0x1c c:/renesas/synergy/e2studio_v2022-04_ssp_v2.3.0/toolchains/gcc_arm/gcc-arm-none-eabi-10.3-2021.10/bin/../lib/gcc/arm-none-eabi/10.3.1/../../../../arm-none-eabi/lib/thumb/v7e-m+fp/hard/rdimon-crt0.o
 .text          0x00000000        0x0 ./synergy/ssp/src/driver/r_ioport/r_ioport.o
 .data          0x00000000        0x0 ./synergy/ssp/src/driver/r_ioport/r_ioport.o
 .bss           0x00000000        0x0 ./synergy/ssp/src/driver/r_ioport/r_ioport.o
 .text          0x00000000        0x0 ./synergy/ssp/src/driver/r_elc/r_elc.o
 .data          0x00000000        0x0 ./synergy/ssp/src/driver/r_elc/r_elc.o
 .bss           0x00000000        0x0 ./synergy/ssp/src/driver/r_elc/r_elc.o
 .text          0x00000000        0x0 ./synergy/ssp/src/driver/r_cgc/r_cgc.o
 .data          0x00000000        0x0 ./synergy/ssp/src/driver/r_cgc/r_cgc.o
 .bss           0x00000000        0x0 ./synergy/ssp/src/driver/r_cgc/r_cgc.o
 .text.r_cgc_operating_mode_get
                0x00000000       0x14 ./synergy/ssp/src/driver/r_cgc/r_cgc.o
 .text.r_cgc_hoco_wait_control_set
                0x00000000       0x24 ./synergy/ssp/src/driver/r_cgc/r_cgc.o
 .text          0x00000000        0x0 ./synergy/ssp/src/bsp/mcu/s7g2/bsp_cache.o
 .data          0x00000000        0x0 ./synergy/ssp/src/bsp/mcu/s7g2/bsp_cache.o
 .bss           0x00000000        0x0 ./synergy/ssp/src/bsp/mcu/s7g2/bsp_cache.o
 .text          0x00000000        0x0 ./synergy/ssp/src/bsp/mcu/s7g2/bsp_clocks.o
 .data          0x00000000        0x0 ./synergy/ssp/src/bsp/mcu/s7g2/bsp_clocks.o
 .bss           0x00000000        0x0 ./synergy/ssp/src/bsp/mcu/s7g2/bsp_clocks.o
 .text          0x00000000        0x0 ./synergy/ssp/src/bsp/mcu/s7g2/bsp_feature.o
 .data          0x00000000        0x0 ./synergy/ssp/src/bsp/mcu/s7g2/bsp_feature.o
 .bss           0x00000000        0x0 ./synergy/ssp/src/bsp/mcu/s7g2/bsp_feature.o
 .text.R_BSP_FeatureSciGet
                0x00000000        0x8 ./synergy/ssp/src/bsp/mcu/s7g2/bsp_feature.o
 .text.R_BSP_FeatureRspiGet
                0x00000000       0x14 ./synergy/ssp/src/bsp/mcu/s7g2/bsp_feature.o
 .text.R_BSP_FeatureLvdGet
                0x00000000       0x18 ./synergy/ssp/src/bsp/mcu/s7g2/bsp_feature.o
 .text.R_BSP_FeatureAcmphsGet
                0x00000000        0x8 ./synergy/ssp/src/bsp/mcu/s7g2/bsp_feature.o
 .text.R_BSP_FeatureAdcGet
                0x00000000       0x2c ./synergy/ssp/src/bsp/mcu/s7g2/bsp_feature.o
 .text.R_BSP_FeatureCanGet
                0x00000000       0x10 ./synergy/ssp/src/bsp/mcu/s7g2/bsp_feature.o
 .text.R_BSP_FeatureDacGet
                0x00000000        0xc ./synergy/ssp/src/bsp/mcu/s7g2/bsp_feature.o
 .text.R_BSP_FeatureCtsuGet
                0x00000000       0x1c ./synergy/ssp/src/bsp/mcu/s7g2/bsp_feature.o
 .text.R_BSP_FeatureSdhiGet
                0x00000000       0x18 ./synergy/ssp/src/bsp/mcu/s7g2/bsp_feature.o
 .text.R_BSP_FeatureSsiGet
                0x00000000        0x8 ./synergy/ssp/src/bsp/mcu/s7g2/bsp_feature.o
 .text.R_BSP_FeatureICUGet
                0x00000000        0xc ./synergy/ssp/src/bsp/mcu/s7g2/bsp_feature.o
 .text.R_BSP_FeatureLPMV2Get
                0x00000000        0xc ./synergy/ssp/src/bsp/mcu/s7g2/bsp_feature.o
 .text.R_BSP_FeatureRIICGet
                0x00000000        0xc ./synergy/ssp/src/bsp/mcu/s7g2/bsp_feature.o
 .text          0x00000000        0x0 ./synergy/ssp/src/bsp/mcu/s7g2/bsp_group_irq.o
 .data          0x00000000        0x0 ./synergy/ssp/src/bsp/mcu/s7g2/bsp_group_irq.o
 .bss           0x00000000        0x0 ./synergy/ssp/src/bsp/mcu/s7g2/bsp_group_irq.o
 .text.bsp_group_irq_call
                0x00000000       0x18 ./synergy/ssp/src/bsp/mcu/s7g2/bsp_group_irq.o
 .text          0x00000000        0x0 ./synergy/ssp/src/bsp/mcu/s7g2/bsp_hw_locks.o
 .data          0x00000000        0x0 ./synergy/ssp/src/bsp/mcu/s7g2/bsp_hw_locks.o
 .bss           0x00000000        0x0 ./synergy/ssp/src/bsp/mcu/s7g2/bsp_hw_locks.o
 .text          0x00000000        0x0 ./synergy/ssp/src/bsp/mcu/s7g2/bsp_module_stop.o
 .data          0x00000000        0x0 ./synergy/ssp/src/bsp/mcu/s7g2/bsp_module_stop.o
 .bss           0x00000000        0x0 ./synergy/ssp/src/bsp/mcu/s7g2/bsp_module_stop.o
 .text.R_BSP_ModuleStop
                0x00000000       0x54 ./synergy/ssp/src/bsp/mcu/s7g2/bsp_module_stop.o
 .text.R_BSP_ModuleStopAlways
                0x00000000       0x84 ./synergy/ssp/src/bsp/mcu/s7g2/bsp_module_stop.o
 .text.R_BSP_ModuleStateGet
                0x00000000       0x80 ./synergy/ssp/src/bsp/mcu/s7g2/bsp_module_stop.o
 .text          0x00000000        0x0 ./synergy/ssp/src/bsp/mcu/s7g2/bsp_rom_registers.o
 .data          0x00000000        0x0 ./synergy/ssp/src/bsp/mcu/s7g2/bsp_rom_registers.o
 .bss           0x00000000        0x0 ./synergy/ssp/src/bsp/mcu/s7g2/bsp_rom_registers.o
 .text          0x00000000        0x0 ./synergy/ssp/src/bsp/mcu/all/bsp_common.o
 .data          0x00000000        0x0 ./synergy/ssp/src/bsp/mcu/all/bsp_common.o
 .bss           0x00000000        0x0 ./synergy/ssp/src/bsp/mcu/all/bsp_common.o
 .text.R_BSP_VersionGet
                0x00000000       0x10 ./synergy/ssp/src/bsp/mcu/all/bsp_common.o
 .text.R_SSP_VersionGet
                0x00000000       0x14 ./synergy/ssp/src/bsp/mcu/all/bsp_common.o
 .text.bsp_init_internal
                0x00000000        0x4 ./synergy/ssp/src/bsp/mcu/all/bsp_common.o
 .text          0x00000000        0x0 ./synergy/ssp/src/bsp/mcu/all/bsp_common_leds.o
 .data          0x00000000        0x0 ./synergy/ssp/src/bsp/mcu/all/bsp_common_leds.o
 .bss           0x00000000        0x0 ./synergy/ssp/src/bsp/mcu/all/bsp_common_leds.o
 .text          0x00000000        0x0 ./synergy/ssp/src/bsp/mcu/all/bsp_delay.o
 .data          0x00000000        0x0 ./synergy/ssp/src/bsp/mcu/all/bsp_delay.o
 .bss           0x00000000        0x0 ./synergy/ssp/src/bsp/mcu/all/bsp_delay.o
 .text          0x00000000        0x0 ./synergy/ssp/src/bsp/mcu/all/bsp_irq.o
 .data          0x00000000        0x0 ./synergy/ssp/src/bsp/mcu/all/bsp_irq.o
 .bss           0x00000000        0x0 ./synergy/ssp/src/bsp/mcu/all/bsp_irq.o
 .text.R_BSP_IrqStatusClear
                0x00000000       0x18 ./synergy/ssp/src/bsp/mcu/all/bsp_irq.o
 .text          0x00000000        0x0 ./synergy/ssp/src/bsp/mcu/all/bsp_locking.o
 .data          0x00000000        0x0 ./synergy/ssp/src/bsp/mcu/all/bsp_locking.o
 .bss           0x00000000        0x0 ./synergy/ssp/src/bsp/mcu/all/bsp_locking.o
 .text.R_BSP_SoftwareLock
                0x00000000       0x20 ./synergy/ssp/src/bsp/mcu/all/bsp_locking.o
 .text.R_BSP_SoftwareUnlock
                0x00000000        0x8 ./synergy/ssp/src/bsp/mcu/all/bsp_locking.o
 .text.R_BSP_HardwareLock
                0x00000000       0x5c ./synergy/ssp/src/bsp/mcu/all/bsp_locking.o
 .text.R_BSP_HardwareUnlock
                0x00000000       0x3c ./synergy/ssp/src/bsp/mcu/all/bsp_locking.o
 .text.R_BSP_SoftwareLockInit
                0x00000000        0x8 ./synergy/ssp/src/bsp/mcu/all/bsp_locking.o
 .text          0x00000000        0x0 ./synergy/ssp/src/bsp/mcu/all/bsp_register_protection.o
 .data          0x00000000        0x0 ./synergy/ssp/src/bsp/mcu/all/bsp_register_protection.o
 .bss           0x00000000        0x0 ./synergy/ssp/src/bsp/mcu/all/bsp_register_protection.o
 .text          0x00000000        0x0 ./synergy/ssp/src/bsp/mcu/all/bsp_sbrk.o
 .data          0x00000000        0x0 ./synergy/ssp/src/bsp/mcu/all/bsp_sbrk.o
 .bss           0x00000000        0x0 ./synergy/ssp/src/bsp/mcu/all/bsp_sbrk.o
 .text          0x00000000        0x0 ./synergy/ssp/src/bsp/cmsis/Device/RENESAS/S7G2/Source/startup_S7G2.o
 .data          0x00000000        0x0 ./synergy/ssp/src/bsp/cmsis/Device/RENESAS/S7G2/Source/startup_S7G2.o
 .bss           0x00000000        0x0 ./synergy/ssp/src/bsp/cmsis/Device/RENESAS/S7G2/Source/startup_S7G2.o
 .text          0x00000000        0x0 ./synergy/ssp/src/bsp/cmsis/Device/RENESAS/S7G2/Source/system_S7G2.o
 .data          0x00000000        0x0 ./synergy/ssp/src/bsp/cmsis/Device/RENESAS/S7G2/Source/system_S7G2.o
 .bss           0x00000000        0x0 ./synergy/ssp/src/bsp/cmsis/Device/RENESAS/S7G2/Source/system_S7G2.o
 .text.SystemCoreClockUpdate
                0x00000000       0x10 ./synergy/ssp/src/bsp/cmsis/Device/RENESAS/S7G2/Source/system_S7G2.o
 .text          0x00000000        0x0 ./synergy/board/s7g2_sk/bsp_init.o
 .data          0x00000000        0x0 ./synergy/board/s7g2_sk/bsp_init.o
 .bss           0x00000000        0x0 ./synergy/board/s7g2_sk/bsp_init.o
 .text          0x00000000        0x0 ./synergy/board/s7g2_sk/bsp_leds.o
 .data          0x00000000        0x0 ./synergy/board/s7g2_sk/bsp_leds.o
 .bss           0x00000000        0x0 ./synergy/board/s7g2_sk/bsp_leds.o
 .text          0x00000000        0x0 ./synergy/board/s7g2_sk/bsp_qspi.o
 .data          0x00000000        0x0 ./synergy/board/s7g2_sk/bsp_qspi.o
 .bss           0x00000000        0x0 ./synergy/board/s7g2_sk/bsp_qspi.o
 .text.bsp_qspi_xip_exit
                0x00000000       0x54 ./synergy/board/s7g2_sk/bsp_qspi.o
 .text.bsp_qspi_status_get
                0x00000000       0x1c ./synergy/board/s7g2_sk/bsp_qspi.o
 .text.bsp_qspi_config_get
                0x00000000       0x8c ./synergy/board/s7g2_sk/bsp_qspi.o
 .text.bsp_qspi_erase_sizes_get
                0x00000000       0x10 ./synergy/board/s7g2_sk/bsp_qspi.o
 .text.bsp_qspi_erase_command_get
                0x00000000        0xc ./synergy/board/s7g2_sk/bsp_qspi.o
 .data.w25q64fv_flash_erase_sizes
                0x00000000       0x10 ./synergy/board/s7g2_sk/bsp_qspi.o
 .rodata.w25q64fv_erase_commands
                0x00000000        0x4 ./synergy/board/s7g2_sk/bsp_qspi.o
 .text          0x00000000        0x0 ./src/synergy_gen/common_data.o
 .data          0x00000000        0x0 ./src/synergy_gen/common_data.o
 .bss           0x00000000        0x0 ./src/synergy_gen/common_data.o
 .text.g_common_init
                0x00000000        0x4 ./src/synergy_gen/common_data.o
 .rodata.g_cgc  0x00000000        0x8 ./src/synergy_gen/common_data.o
 .rodata.g_elc  0x00000000        0x8 ./src/synergy_gen/common_data.o
 .rodata.g_fmi  0x00000000        0x4 ./src/synergy_gen/common_data.o
 .text          0x00000000        0x0 ./src/synergy_gen/hal_data.o
 .data          0x00000000        0x0 ./src/synergy_gen/hal_data.o
 .bss           0x00000000        0x0 ./src/synergy_gen/hal_data.o
 .text.g_hal_init
                0x00000000        0x4 ./src/synergy_gen/hal_data.o
 .debug_info    0x00000000       0xa6 ./src/synergy_gen/hal_data.o
 .debug_abbrev  0x00000000       0x67 ./src/synergy_gen/hal_data.o
 .debug_aranges
                0x00000000       0x20 ./src/synergy_gen/hal_data.o
 .debug_ranges  0x00000000       0x10 ./src/synergy_gen/hal_data.o
 .debug_line    0x00000000       0x61 ./src/synergy_gen/hal_data.o
 .debug_str     0x00000000      0x1c7 ./src/synergy_gen/hal_data.o
 .comment       0x00000000       0x4a ./src/synergy_gen/hal_data.o
 .debug_frame   0x00000000       0x20 ./src/synergy_gen/hal_data.o
 .ARM.attributes
                0x00000000       0x34 ./src/synergy_gen/hal_data.o
 .text          0x00000000        0x0 ./src/synergy_gen/main.o
 .data          0x00000000        0x0 ./src/synergy_gen/main.o
 .bss           0x00000000        0x0 ./src/synergy_gen/main.o
 .text          0x00000000        0x0 ./src/synergy_gen/pin_data.o
 .data          0x00000000        0x0 ./src/synergy_gen/pin_data.o
 .bss           0x00000000        0x0 ./src/synergy_gen/pin_data.o
 .text          0x00000000        0x0 ./src/hal_entry.o
 .data          0x00000000        0x0 ./src/hal_entry.o
 .bss           0x00000000        0x0 ./src/hal_entry.o
 .text          0x00000000        0x0 C:\Users\wesle\e2_studio\workspace\hello_world_basic\synergy\ssp\src\driver\r_fmi\libs\libfmi_cm4_s7g2_gcc.a(r_fmi.o)
 .data          0x00000000        0x0 C:\Users\wesle\e2_studio\workspace\hello_world_basic\synergy\ssp\src\driver\r_fmi\libs\libfmi_cm4_s7g2_gcc.a(r_fmi.o)
 .bss           0x00000000        0x0 C:\Users\wesle\e2_studio\workspace\hello_world_basic\synergy\ssp\src\driver\r_fmi\libs\libfmi_cm4_s7g2_gcc.a(r_fmi.o)
 .text          0x00000000        0x0 C:\Users\wesle\e2_studio\workspace\hello_world_basic\synergy\ssp\src\bsp\mcu\s7g2\libfmi_R7FS7G27H3A01CFC_gcc.a(bsp_fmi_R7FS7G27H3A01CFC.o)
 .data          0x00000000        0x0 C:\Users\wesle\e2_studio\workspace\hello_world_basic\synergy\ssp\src\bsp\mcu\s7g2\libfmi_R7FS7G27H3A01CFC_gcc.a(bsp_fmi_R7FS7G27H3A01CFC.o)
 .bss           0x00000000        0x0 C:\Users\wesle\e2_studio\workspace\hello_world_basic\synergy\ssp\src\bsp\mcu\s7g2\libfmi_R7FS7G27H3A01CFC_gcc.a(bsp_fmi_R7FS7G27H3A01CFC.o)
 .text          0x00000000        0x0 c:/renesas/synergy/e2studio_v2022-04_ssp_v2.3.0/toolchains/gcc_arm/gcc-arm-none-eabi-10.3-2021.10/bin/../lib/gcc/arm-none-eabi/10.3.1/../../../../arm-none-eabi/lib/thumb/v7e-m+fp/hard\libg_nano.a(lib_a-errno.o)
 .data          0x00000000        0x0 c:/renesas/synergy/e2studio_v2022-04_ssp_v2.3.0/toolchains/gcc_arm/gcc-arm-none-eabi-10.3-2021.10/bin/../lib/gcc/arm-none-eabi/10.3.1/../../../../arm-none-eabi/lib/thumb/v7e-m+fp/hard\libg_nano.a(lib_a-errno.o)
 .bss           0x00000000        0x0 c:/renesas/synergy/e2studio_v2022-04_ssp_v2.3.0/toolchains/gcc_arm/gcc-arm-none-eabi-10.3-2021.10/bin/../lib/gcc/arm-none-eabi/10.3.1/../../../../arm-none-eabi/lib/thumb/v7e-m+fp/hard\libg_nano.a(lib_a-errno.o)
 .text          0x00000000        0x0 c:/renesas/synergy/e2studio_v2022-04_ssp_v2.3.0/toolchains/gcc_arm/gcc-arm-none-eabi-10.3-2021.10/bin/../lib/gcc/arm-none-eabi/10.3.1/../../../../arm-none-eabi/lib/thumb/v7e-m+fp/hard\libg_nano.a(lib_a-exit.o)
 .data          0x00000000        0x0 c:/renesas/synergy/e2studio_v2022-04_ssp_v2.3.0/toolchains/gcc_arm/gcc-arm-none-eabi-10.3-2021.10/bin/../lib/gcc/arm-none-eabi/10.3.1/../../../../arm-none-eabi/lib/thumb/v7e-m+fp/hard\libg_nano.a(lib_a-exit.o)
 .bss           0x00000000        0x0 c:/renesas/synergy/e2studio_v2022-04_ssp_v2.3.0/toolchains/gcc_arm/gcc-arm-none-eabi-10.3-2021.10/bin/../lib/gcc/arm-none-eabi/10.3.1/../../../../arm-none-eabi/lib/thumb/v7e-m+fp/hard\libg_nano.a(lib_a-exit.o)
 .text.exit     0x00000000       0x28 c:/renesas/synergy/e2studio_v2022-04_ssp_v2.3.0/toolchains/gcc_arm/gcc-arm-none-eabi-10.3-2021.10/bin/../lib/gcc/arm-none-eabi/10.3.1/../../../../arm-none-eabi/lib/thumb/v7e-m+fp/hard\libg_nano.a(lib_a-exit.o)
 .debug_frame   0x00000000       0x28 c:/renesas/synergy/e2studio_v2022-04_ssp_v2.3.0/toolchains/gcc_arm/gcc-arm-none-eabi-10.3-2021.10/bin/../lib/gcc/arm-none-eabi/10.3.1/../../../../arm-none-eabi/lib/thumb/v7e-m+fp/hard\libg_nano.a(lib_a-exit.o)
 .ARM.attributes
                0x00000000       0x34 c:/renesas/synergy/e2studio_v2022-04_ssp_v2.3.0/toolchains/gcc_arm/gcc-arm-none-eabi-10.3-2021.10/bin/../lib/gcc/arm-none-eabi/10.3.1/../../../../arm-none-eabi/lib/thumb/v7e-m+fp/hard\libg_nano.a(lib_a-exit.o)
 .text          0x00000000        0x0 c:/renesas/synergy/e2studio_v2022-04_ssp_v2.3.0/toolchains/gcc_arm/gcc-arm-none-eabi-10.3-2021.10/bin/../lib/gcc/arm-none-eabi/10.3.1/../../../../arm-none-eabi/lib/thumb/v7e-m+fp/hard\libg_nano.a(lib_a-impure.o)
 .data          0x00000000        0x0 c:/renesas/synergy/e2studio_v2022-04_ssp_v2.3.0/toolchains/gcc_arm/gcc-arm-none-eabi-10.3-2021.10/bin/../lib/gcc/arm-none-eabi/10.3.1/../../../../arm-none-eabi/lib/thumb/v7e-m+fp/hard\libg_nano.a(lib_a-impure.o)
 .bss           0x00000000        0x0 c:/renesas/synergy/e2studio_v2022-04_ssp_v2.3.0/toolchains/gcc_arm/gcc-arm-none-eabi-10.3-2021.10/bin/../lib/gcc/arm-none-eabi/10.3.1/../../../../arm-none-eabi/lib/thumb/v7e-m+fp/hard\libg_nano.a(lib_a-impure.o)
 .text          0x00000000        0x0 c:/renesas/synergy/e2studio_v2022-04_ssp_v2.3.0/toolchains/gcc_arm/gcc-arm-none-eabi-10.3-2021.10/bin/../lib/gcc/arm-none-eabi/10.3.1/../../../../arm-none-eabi/lib/thumb/v7e-m+fp/hard\libg_nano.a(lib_a-init.o)
 .data          0x00000000        0x0 c:/renesas/synergy/e2studio_v2022-04_ssp_v2.3.0/toolchains/gcc_arm/gcc-arm-none-eabi-10.3-2021.10/bin/../lib/gcc/arm-none-eabi/10.3.1/../../../../arm-none-eabi/lib/thumb/v7e-m+fp/hard\libg_nano.a(lib_a-init.o)
 .bss           0x00000000        0x0 c:/renesas/synergy/e2studio_v2022-04_ssp_v2.3.0/toolchains/gcc_arm/gcc-arm-none-eabi-10.3-2021.10/bin/../lib/gcc/arm-none-eabi/10.3.1/../../../../arm-none-eabi/lib/thumb/v7e-m+fp/hard\libg_nano.a(lib_a-init.o)
 .text.__libc_init_array
                0x00000000       0x48 c:/renesas/synergy/e2studio_v2022-04_ssp_v2.3.0/toolchains/gcc_arm/gcc-arm-none-eabi-10.3-2021.10/bin/../lib/gcc/arm-none-eabi/10.3.1/../../../../arm-none-eabi/lib/thumb/v7e-m+fp/hard\libg_nano.a(lib_a-init.o)
 .debug_frame   0x00000000       0x2c c:/renesas/synergy/e2studio_v2022-04_ssp_v2.3.0/toolchains/gcc_arm/gcc-arm-none-eabi-10.3-2021.10/bin/../lib/gcc/arm-none-eabi/10.3.1/../../../../arm-none-eabi/lib/thumb/v7e-m+fp/hard\libg_nano.a(lib_a-init.o)
 .ARM.attributes
                0x00000000       0x34 c:/renesas/synergy/e2studio_v2022-04_ssp_v2.3.0/toolchains/gcc_arm/gcc-arm-none-eabi-10.3-2021.10/bin/../lib/gcc/arm-none-eabi/10.3.1/../../../../arm-none-eabi/lib/thumb/v7e-m+fp/hard\libg_nano.a(lib_a-init.o)
 .text          0x00000000        0x0 c:/renesas/synergy/e2studio_v2022-04_ssp_v2.3.0/toolchains/gcc_arm/gcc-arm-none-eabi-10.3-2021.10/bin/../lib/gcc/arm-none-eabi/10.3.1/../../../../arm-none-eabi/lib/thumb/v7e-m+fp/hard\libg_nano.a(lib_a-memcpy-stub.o)
 .data          0x00000000        0x0 c:/renesas/synergy/e2studio_v2022-04_ssp_v2.3.0/toolchains/gcc_arm/gcc-arm-none-eabi-10.3-2021.10/bin/../lib/gcc/arm-none-eabi/10.3.1/../../../../arm-none-eabi/lib/thumb/v7e-m+fp/hard\libg_nano.a(lib_a-memcpy-stub.o)
 .bss           0x00000000        0x0 c:/renesas/synergy/e2studio_v2022-04_ssp_v2.3.0/toolchains/gcc_arm/gcc-arm-none-eabi-10.3-2021.10/bin/../lib/gcc/arm-none-eabi/10.3.1/../../../../arm-none-eabi/lib/thumb/v7e-m+fp/hard\libg_nano.a(lib_a-memcpy-stub.o)
 .text          0x00000000        0x0 c:/renesas/synergy/e2studio_v2022-04_ssp_v2.3.0/toolchains/gcc_arm/gcc-arm-none-eabi-10.3-2021.10/bin/../lib/gcc/arm-none-eabi/10.3.1/../../../../arm-none-eabi/lib/thumb/v7e-m+fp/hard\libg_nano.a(lib_a-memset.o)
 .data          0x00000000        0x0 c:/renesas/synergy/e2studio_v2022-04_ssp_v2.3.0/toolchains/gcc_arm/gcc-arm-none-eabi-10.3-2021.10/bin/../lib/gcc/arm-none-eabi/10.3.1/../../../../arm-none-eabi/lib/thumb/v7e-m+fp/hard\libg_nano.a(lib_a-memset.o)
 .bss           0x00000000        0x0 c:/renesas/synergy/e2studio_v2022-04_ssp_v2.3.0/toolchains/gcc_arm/gcc-arm-none-eabi-10.3-2021.10/bin/../lib/gcc/arm-none-eabi/10.3.1/../../../../arm-none-eabi/lib/thumb/v7e-m+fp/hard\libg_nano.a(lib_a-memset.o)
 .text          0x00000000        0x0 c:/renesas/synergy/e2studio_v2022-04_ssp_v2.3.0/toolchains/gcc_arm/gcc-arm-none-eabi-10.3-2021.10/bin/../lib/gcc/arm-none-eabi/10.3.1/../../../../arm-none-eabi/lib/thumb/v7e-m+fp/hard\libg_nano.a(lib_a-rand.o)
 .data          0x00000000        0x0 c:/renesas/synergy/e2studio_v2022-04_ssp_v2.3.0/toolchains/gcc_arm/gcc-arm-none-eabi-10.3-2021.10/bin/../lib/gcc/arm-none-eabi/10.3.1/../../../../arm-none-eabi/lib/thumb/v7e-m+fp/hard\libg_nano.a(lib_a-rand.o)
 .bss           0x00000000        0x0 c:/renesas/synergy/e2studio_v2022-04_ssp_v2.3.0/toolchains/gcc_arm/gcc-arm-none-eabi-10.3-2021.10/bin/../lib/gcc/arm-none-eabi/10.3.1/../../../../arm-none-eabi/lib/thumb/v7e-m+fp/hard\libg_nano.a(lib_a-rand.o)
 .text.rand     0x00000000       0x7c c:/renesas/synergy/e2studio_v2022-04_ssp_v2.3.0/toolchains/gcc_arm/gcc-arm-none-eabi-10.3-2021.10/bin/../lib/gcc/arm-none-eabi/10.3.1/../../../../arm-none-eabi/lib/thumb/v7e-m+fp/hard\libg_nano.a(lib_a-rand.o)
 .text          0x00000000        0x0 c:/renesas/synergy/e2studio_v2022-04_ssp_v2.3.0/toolchains/gcc_arm/gcc-arm-none-eabi-10.3-2021.10/bin/../lib/gcc/arm-none-eabi/10.3.1/../../../../arm-none-eabi/lib/thumb/v7e-m+fp/hard\libg_nano.a(lib_a-assert.o)
 .data          0x00000000        0x0 c:/renesas/synergy/e2studio_v2022-04_ssp_v2.3.0/toolchains/gcc_arm/gcc-arm-none-eabi-10.3-2021.10/bin/../lib/gcc/arm-none-eabi/10.3.1/../../../../arm-none-eabi/lib/thumb/v7e-m+fp/hard\libg_nano.a(lib_a-assert.o)
 .bss           0x00000000        0x0 c:/renesas/synergy/e2studio_v2022-04_ssp_v2.3.0/toolchains/gcc_arm/gcc-arm-none-eabi-10.3-2021.10/bin/../lib/gcc/arm-none-eabi/10.3.1/../../../../arm-none-eabi/lib/thumb/v7e-m+fp/hard\libg_nano.a(lib_a-assert.o)
 .text.__assert
                0x00000000        0xa c:/renesas/synergy/e2studio_v2022-04_ssp_v2.3.0/toolchains/gcc_arm/gcc-arm-none-eabi-10.3-2021.10/bin/../lib/gcc/arm-none-eabi/10.3.1/../../../../arm-none-eabi/lib/thumb/v7e-m+fp/hard\libg_nano.a(lib_a-assert.o)
 .text          0x00000000        0x0 c:/renesas/synergy/e2studio_v2022-04_ssp_v2.3.0/toolchains/gcc_arm/gcc-arm-none-eabi-10.3-2021.10/bin/../lib/gcc/arm-none-eabi/10.3.1/../../../../arm-none-eabi/lib/thumb/v7e-m+fp/hard\libg_nano.a(lib_a-fprintf.o)
 .data          0x00000000        0x0 c:/renesas/synergy/e2studio_v2022-04_ssp_v2.3.0/toolchains/gcc_arm/gcc-arm-none-eabi-10.3-2021.10/bin/../lib/gcc/arm-none-eabi/10.3.1/../../../../arm-none-eabi/lib/thumb/v7e-m+fp/hard\libg_nano.a(lib_a-fprintf.o)
 .bss           0x00000000        0x0 c:/renesas/synergy/e2studio_v2022-04_ssp_v2.3.0/toolchains/gcc_arm/gcc-arm-none-eabi-10.3-2021.10/bin/../lib/gcc/arm-none-eabi/10.3.1/../../../../arm-none-eabi/lib/thumb/v7e-m+fp/hard\libg_nano.a(lib_a-fprintf.o)
 .text._fprintf_r
                0x00000000       0x1a c:/renesas/synergy/e2studio_v2022-04_ssp_v2.3.0/toolchains/gcc_arm/gcc-arm-none-eabi-10.3-2021.10/bin/../lib/gcc/arm-none-eabi/10.3.1/../../../../arm-none-eabi/lib/thumb/v7e-m+fp/hard\libg_nano.a(lib_a-fprintf.o)
 .text          0x00000000        0x0 c:/renesas/synergy/e2studio_v2022-04_ssp_v2.3.0/toolchains/gcc_arm/gcc-arm-none-eabi-10.3-2021.10/bin/../lib/gcc/arm-none-eabi/10.3.1/../../../../arm-none-eabi/lib/thumb/v7e-m+fp/hard\libg_nano.a(lib_a-malloc.o)
 .data          0x00000000        0x0 c:/renesas/synergy/e2studio_v2022-04_ssp_v2.3.0/toolchains/gcc_arm/gcc-arm-none-eabi-10.3-2021.10/bin/../lib/gcc/arm-none-eabi/10.3.1/../../../../arm-none-eabi/lib/thumb/v7e-m+fp/hard\libg_nano.a(lib_a-malloc.o)
 .bss           0x00000000        0x0 c:/renesas/synergy/e2studio_v2022-04_ssp_v2.3.0/toolchains/gcc_arm/gcc-arm-none-eabi-10.3-2021.10/bin/../lib/gcc/arm-none-eabi/10.3.1/../../../../arm-none-eabi/lib/thumb/v7e-m+fp/hard\libg_nano.a(lib_a-malloc.o)
 .text.free     0x00000000       0x10 c:/renesas/synergy/e2studio_v2022-04_ssp_v2.3.0/toolchains/gcc_arm/gcc-arm-none-eabi-10.3-2021.10/bin/../lib/gcc/arm-none-eabi/10.3.1/../../../../arm-none-eabi/lib/thumb/v7e-m+fp/hard\libg_nano.a(lib_a-malloc.o)
 .text          0x00000000        0x0 c:/renesas/synergy/e2studio_v2022-04_ssp_v2.3.0/toolchains/gcc_arm/gcc-arm-none-eabi-10.3-2021.10/bin/../lib/gcc/arm-none-eabi/10.3.1/../../../../arm-none-eabi/lib/thumb/v7e-m+fp/hard\libg_nano.a(lib_a-nano-freer.o)
 .data          0x00000000        0x0 c:/renesas/synergy/e2studio_v2022-04_ssp_v2.3.0/toolchains/gcc_arm/gcc-arm-none-eabi-10.3-2021.10/bin/../lib/gcc/arm-none-eabi/10.3.1/../../../../arm-none-eabi/lib/thumb/v7e-m+fp/hard\libg_nano.a(lib_a-nano-freer.o)
 .bss           0x00000000        0x0 c:/renesas/synergy/e2studio_v2022-04_ssp_v2.3.0/toolchains/gcc_arm/gcc-arm-none-eabi-10.3-2021.10/bin/../lib/gcc/arm-none-eabi/10.3.1/../../../../arm-none-eabi/lib/thumb/v7e-m+fp/hard\libg_nano.a(lib_a-nano-freer.o)
 .text          0x00000000        0x0 c:/renesas/synergy/e2studio_v2022-04_ssp_v2.3.0/toolchains/gcc_arm/gcc-arm-none-eabi-10.3-2021.10/bin/../lib/gcc/arm-none-eabi/10.3.1/../../../../arm-none-eabi/lib/thumb/v7e-m+fp/hard\libg_nano.a(lib_a-nano-mallocr.o)
 .data          0x00000000        0x0 c:/renesas/synergy/e2studio_v2022-04_ssp_v2.3.0/toolchains/gcc_arm/gcc-arm-none-eabi-10.3-2021.10/bin/../lib/gcc/arm-none-eabi/10.3.1/../../../../arm-none-eabi/lib/thumb/v7e-m+fp/hard\libg_nano.a(lib_a-nano-mallocr.o)
 .bss           0x00000000        0x0 c:/renesas/synergy/e2studio_v2022-04_ssp_v2.3.0/toolchains/gcc_arm/gcc-arm-none-eabi-10.3-2021.10/bin/../lib/gcc/arm-none-eabi/10.3.1/../../../../arm-none-eabi/lib/thumb/v7e-m+fp/hard\libg_nano.a(lib_a-nano-mallocr.o)
 .text          0x00000000        0x0 c:/renesas/synergy/e2studio_v2022-04_ssp_v2.3.0/toolchains/gcc_arm/gcc-arm-none-eabi-10.3-2021.10/bin/../lib/gcc/arm-none-eabi/10.3.1/../../../../arm-none-eabi/lib/thumb/v7e-m+fp/hard\libg_nano.a(lib_a-nano-vfprintf.o)
 .data          0x00000000        0x0 c:/renesas/synergy/e2studio_v2022-04_ssp_v2.3.0/toolchains/gcc_arm/gcc-arm-none-eabi-10.3-2021.10/bin/../lib/gcc/arm-none-eabi/10.3.1/../../../../arm-none-eabi/lib/thumb/v7e-m+fp/hard\libg_nano.a(lib_a-nano-vfprintf.o)
 .bss           0x00000000        0x0 c:/renesas/synergy/e2studio_v2022-04_ssp_v2.3.0/toolchains/gcc_arm/gcc-arm-none-eabi-10.3-2021.10/bin/../lib/gcc/arm-none-eabi/10.3.1/../../../../arm-none-eabi/lib/thumb/v7e-m+fp/hard\libg_nano.a(lib_a-nano-vfprintf.o)
 .text.__sprint_r
                0x00000000       0x1a c:/renesas/synergy/e2studio_v2022-04_ssp_v2.3.0/toolchains/gcc_arm/gcc-arm-none-eabi-10.3-2021.10/bin/../lib/gcc/arm-none-eabi/10.3.1/../../../../arm-none-eabi/lib/thumb/v7e-m+fp/hard\libg_nano.a(lib_a-nano-vfprintf.o)
 .text.vfprintf
                0x00000000       0x14 c:/renesas/synergy/e2studio_v2022-04_ssp_v2.3.0/toolchains/gcc_arm/gcc-arm-none-eabi-10.3-2021.10/bin/../lib/gcc/arm-none-eabi/10.3.1/../../../../arm-none-eabi/lib/thumb/v7e-m+fp/hard\libg_nano.a(lib_a-nano-vfprintf.o)
 .text          0x00000000        0x0 c:/renesas/synergy/e2studio_v2022-04_ssp_v2.3.0/toolchains/gcc_arm/gcc-arm-none-eabi-10.3-2021.10/bin/../lib/gcc/arm-none-eabi/10.3.1/../../../../arm-none-eabi/lib/thumb/v7e-m+fp/hard\libg_nano.a(lib_a-nano-vfprintf_i.o)
 .data          0x00000000        0x0 c:/renesas/synergy/e2studio_v2022-04_ssp_v2.3.0/toolchains/gcc_arm/gcc-arm-none-eabi-10.3-2021.10/bin/../lib/gcc/arm-none-eabi/10.3.1/../../../../arm-none-eabi/lib/thumb/v7e-m+fp/hard\libg_nano.a(lib_a-nano-vfprintf_i.o)
 .bss           0x00000000        0x0 c:/renesas/synergy/e2studio_v2022-04_ssp_v2.3.0/toolchains/gcc_arm/gcc-arm-none-eabi-10.3-2021.10/bin/../lib/gcc/arm-none-eabi/10.3.1/../../../../arm-none-eabi/lib/thumb/v7e-m+fp/hard\libg_nano.a(lib_a-nano-vfprintf_i.o)
 .text          0x00000000        0x0 c:/renesas/synergy/e2studio_v2022-04_ssp_v2.3.0/toolchains/gcc_arm/gcc-arm-none-eabi-10.3-2021.10/bin/../lib/gcc/arm-none-eabi/10.3.1/../../../../arm-none-eabi/lib/thumb/v7e-m+fp/hard\libg_nano.a(lib_a-sbrkr.o)
 .data          0x00000000        0x0 c:/renesas/synergy/e2studio_v2022-04_ssp_v2.3.0/toolchains/gcc_arm/gcc-arm-none-eabi-10.3-2021.10/bin/../lib/gcc/arm-none-eabi/10.3.1/../../../../arm-none-eabi/lib/thumb/v7e-m+fp/hard\libg_nano.a(lib_a-sbrkr.o)
 .bss           0x00000000        0x0 c:/renesas/synergy/e2studio_v2022-04_ssp_v2.3.0/toolchains/gcc_arm/gcc-arm-none-eabi-10.3-2021.10/bin/../lib/gcc/arm-none-eabi/10.3.1/../../../../arm-none-eabi/lib/thumb/v7e-m+fp/hard\libg_nano.a(lib_a-sbrkr.o)
 .text          0x00000000        0x0 c:/renesas/synergy/e2studio_v2022-04_ssp_v2.3.0/toolchains/gcc_arm/gcc-arm-none-eabi-10.3-2021.10/bin/../lib/gcc/arm-none-eabi/10.3.1/../../../../arm-none-eabi/lib/thumb/v7e-m+fp/hard\libg_nano.a(lib_a-wbuf.o)
 .data          0x00000000        0x0 c:/renesas/synergy/e2studio_v2022-04_ssp_v2.3.0/toolchains/gcc_arm/gcc-arm-none-eabi-10.3-2021.10/bin/../lib/gcc/arm-none-eabi/10.3.1/../../../../arm-none-eabi/lib/thumb/v7e-m+fp/hard\libg_nano.a(lib_a-wbuf.o)
 .bss           0x00000000        0x0 c:/renesas/synergy/e2studio_v2022-04_ssp_v2.3.0/toolchains/gcc_arm/gcc-arm-none-eabi-10.3-2021.10/bin/../lib/gcc/arm-none-eabi/10.3.1/../../../../arm-none-eabi/lib/thumb/v7e-m+fp/hard\libg_nano.a(lib_a-wbuf.o)
 .text.__swbuf  0x00000000       0x10 c:/renesas/synergy/e2studio_v2022-04_ssp_v2.3.0/toolchains/gcc_arm/gcc-arm-none-eabi-10.3-2021.10/bin/../lib/gcc/arm-none-eabi/10.3.1/../../../../arm-none-eabi/lib/thumb/v7e-m+fp/hard\libg_nano.a(lib_a-wbuf.o)
 .text          0x00000000        0x0 c:/renesas/synergy/e2studio_v2022-04_ssp_v2.3.0/toolchains/gcc_arm/gcc-arm-none-eabi-10.3-2021.10/bin/../lib/gcc/arm-none-eabi/10.3.1/../../../../arm-none-eabi/lib/thumb/v7e-m+fp/hard\libg_nano.a(lib_a-wsetup.o)
 .data          0x00000000        0x0 c:/renesas/synergy/e2studio_v2022-04_ssp_v2.3.0/toolchains/gcc_arm/gcc-arm-none-eabi-10.3-2021.10/bin/../lib/gcc/arm-none-eabi/10.3.1/../../../../arm-none-eabi/lib/thumb/v7e-m+fp/hard\libg_nano.a(lib_a-wsetup.o)
 .bss           0x00000000        0x0 c:/renesas/synergy/e2studio_v2022-04_ssp_v2.3.0/toolchains/gcc_arm/gcc-arm-none-eabi-10.3-2021.10/bin/../lib/gcc/arm-none-eabi/10.3.1/../../../../arm-none-eabi/lib/thumb/v7e-m+fp/hard\libg_nano.a(lib_a-wsetup.o)
 .text          0x00000000        0x0 c:/renesas/synergy/e2studio_v2022-04_ssp_v2.3.0/toolchains/gcc_arm/gcc-arm-none-eabi-10.3-2021.10/bin/../lib/gcc/arm-none-eabi/10.3.1/../../../../arm-none-eabi/lib/thumb/v7e-m+fp/hard\libg_nano.a(lib_a-abort.o)
 .data          0x00000000        0x0 c:/renesas/synergy/e2studio_v2022-04_ssp_v2.3.0/toolchains/gcc_arm/gcc-arm-none-eabi-10.3-2021.10/bin/../lib/gcc/arm-none-eabi/10.3.1/../../../../arm-none-eabi/lib/thumb/v7e-m+fp/hard\libg_nano.a(lib_a-abort.o)
 .bss           0x00000000        0x0 c:/renesas/synergy/e2studio_v2022-04_ssp_v2.3.0/toolchains/gcc_arm/gcc-arm-none-eabi-10.3-2021.10/bin/../lib/gcc/arm-none-eabi/10.3.1/../../../../arm-none-eabi/lib/thumb/v7e-m+fp/hard\libg_nano.a(lib_a-abort.o)
 .text          0x00000000        0x0 c:/renesas/synergy/e2studio_v2022-04_ssp_v2.3.0/toolchains/gcc_arm/gcc-arm-none-eabi-10.3-2021.10/bin/../lib/gcc/arm-none-eabi/10.3.1/../../../../arm-none-eabi/lib/thumb/v7e-m+fp/hard\libg_nano.a(lib_a-fflush.o)
 .data          0x00000000        0x0 c:/renesas/synergy/e2studio_v2022-04_ssp_v2.3.0/toolchains/gcc_arm/gcc-arm-none-eabi-10.3-2021.10/bin/../lib/gcc/arm-none-eabi/10.3.1/../../../../arm-none-eabi/lib/thumb/v7e-m+fp/hard\libg_nano.a(lib_a-fflush.o)
 .bss           0x00000000        0x0 c:/renesas/synergy/e2studio_v2022-04_ssp_v2.3.0/toolchains/gcc_arm/gcc-arm-none-eabi-10.3-2021.10/bin/../lib/gcc/arm-none-eabi/10.3.1/../../../../arm-none-eabi/lib/thumb/v7e-m+fp/hard\libg_nano.a(lib_a-fflush.o)
 .text.fflush   0x00000000       0x24 c:/renesas/synergy/e2studio_v2022-04_ssp_v2.3.0/toolchains/gcc_arm/gcc-arm-none-eabi-10.3-2021.10/bin/../lib/gcc/arm-none-eabi/10.3.1/../../../../arm-none-eabi/lib/thumb/v7e-m+fp/hard\libg_nano.a(lib_a-fflush.o)
 .text          0x00000000        0x0 c:/renesas/synergy/e2studio_v2022-04_ssp_v2.3.0/toolchains/gcc_arm/gcc-arm-none-eabi-10.3-2021.10/bin/../lib/gcc/arm-none-eabi/10.3.1/../../../../arm-none-eabi/lib/thumb/v7e-m+fp/hard\libg_nano.a(lib_a-findfp.o)
 .data          0x00000000        0x0 c:/renesas/synergy/e2studio_v2022-04_ssp_v2.3.0/toolchains/gcc_arm/gcc-arm-none-eabi-10.3-2021.10/bin/../lib/gcc/arm-none-eabi/10.3.1/../../../../arm-none-eabi/lib/thumb/v7e-m+fp/hard\libg_nano.a(lib_a-findfp.o)
 .bss           0x00000000        0x0 c:/renesas/synergy/e2studio_v2022-04_ssp_v2.3.0/toolchains/gcc_arm/gcc-arm-none-eabi-10.3-2021.10/bin/../lib/gcc/arm-none-eabi/10.3.1/../../../../arm-none-eabi/lib/thumb/v7e-m+fp/hard\libg_nano.a(lib_a-findfp.o)
 .text.__fp_lock
                0x00000000       0x18 c:/renesas/synergy/e2studio_v2022-04_ssp_v2.3.0/toolchains/gcc_arm/gcc-arm-none-eabi-10.3-2021.10/bin/../lib/gcc/arm-none-eabi/10.3.1/../../../../arm-none-eabi/lib/thumb/v7e-m+fp/hard\libg_nano.a(lib_a-findfp.o)
 .text.__fp_unlock
                0x00000000       0x18 c:/renesas/synergy/e2studio_v2022-04_ssp_v2.3.0/toolchains/gcc_arm/gcc-arm-none-eabi-10.3-2021.10/bin/../lib/gcc/arm-none-eabi/10.3.1/../../../../arm-none-eabi/lib/thumb/v7e-m+fp/hard\libg_nano.a(lib_a-findfp.o)
 .text._cleanup
                0x00000000        0xc c:/renesas/synergy/e2studio_v2022-04_ssp_v2.3.0/toolchains/gcc_arm/gcc-arm-none-eabi-10.3-2021.10/bin/../lib/gcc/arm-none-eabi/10.3.1/../../../../arm-none-eabi/lib/thumb/v7e-m+fp/hard\libg_nano.a(lib_a-findfp.o)
 .text.__fp_lock_all
                0x00000000       0x1c c:/renesas/synergy/e2studio_v2022-04_ssp_v2.3.0/toolchains/gcc_arm/gcc-arm-none-eabi-10.3-2021.10/bin/../lib/gcc/arm-none-eabi/10.3.1/../../../../arm-none-eabi/lib/thumb/v7e-m+fp/hard\libg_nano.a(lib_a-findfp.o)
 .text.__fp_unlock_all
                0x00000000       0x1c c:/renesas/synergy/e2studio_v2022-04_ssp_v2.3.0/toolchains/gcc_arm/gcc-arm-none-eabi-10.3-2021.10/bin/../lib/gcc/arm-none-eabi/10.3.1/../../../../arm-none-eabi/lib/thumb/v7e-m+fp/hard\libg_nano.a(lib_a-findfp.o)
 .text          0x00000000        0x0 c:/renesas/synergy/e2studio_v2022-04_ssp_v2.3.0/toolchains/gcc_arm/gcc-arm-none-eabi-10.3-2021.10/bin/../lib/gcc/arm-none-eabi/10.3.1/../../../../arm-none-eabi/lib/thumb/v7e-m+fp/hard\libg_nano.a(lib_a-fvwrite.o)
 .data          0x00000000        0x0 c:/renesas/synergy/e2studio_v2022-04_ssp_v2.3.0/toolchains/gcc_arm/gcc-arm-none-eabi-10.3-2021.10/bin/../lib/gcc/arm-none-eabi/10.3.1/../../../../arm-none-eabi/lib/thumb/v7e-m+fp/hard\libg_nano.a(lib_a-fvwrite.o)
 .bss           0x00000000        0x0 c:/renesas/synergy/e2studio_v2022-04_ssp_v2.3.0/toolchains/gcc_arm/gcc-arm-none-eabi-10.3-2021.10/bin/../lib/gcc/arm-none-eabi/10.3.1/../../../../arm-none-eabi/lib/thumb/v7e-m+fp/hard\libg_nano.a(lib_a-fvwrite.o)
 .text.__sfvwrite_r
                0x00000000      0x294 c:/renesas/synergy/e2studio_v2022-04_ssp_v2.3.0/toolchains/gcc_arm/gcc-arm-none-eabi-10.3-2021.10/bin/../lib/gcc/arm-none-eabi/10.3.1/../../../../arm-none-eabi/lib/thumb/v7e-m+fp/hard\libg_nano.a(lib_a-fvwrite.o)
 .debug_frame   0x00000000       0x3c c:/renesas/synergy/e2studio_v2022-04_ssp_v2.3.0/toolchains/gcc_arm/gcc-arm-none-eabi-10.3-2021.10/bin/../lib/gcc/arm-none-eabi/10.3.1/../../../../arm-none-eabi/lib/thumb/v7e-m+fp/hard\libg_nano.a(lib_a-fvwrite.o)
 .ARM.attributes
                0x00000000       0x34 c:/renesas/synergy/e2studio_v2022-04_ssp_v2.3.0/toolchains/gcc_arm/gcc-arm-none-eabi-10.3-2021.10/bin/../lib/gcc/arm-none-eabi/10.3.1/../../../../arm-none-eabi/lib/thumb/v7e-m+fp/hard\libg_nano.a(lib_a-fvwrite.o)
 .text          0x00000000        0x0 c:/renesas/synergy/e2studio_v2022-04_ssp_v2.3.0/toolchains/gcc_arm/gcc-arm-none-eabi-10.3-2021.10/bin/../lib/gcc/arm-none-eabi/10.3.1/../../../../arm-none-eabi/lib/thumb/v7e-m+fp/hard\libg_nano.a(lib_a-fwalk.o)
 .data          0x00000000        0x0 c:/renesas/synergy/e2studio_v2022-04_ssp_v2.3.0/toolchains/gcc_arm/gcc-arm-none-eabi-10.3-2021.10/bin/../lib/gcc/arm-none-eabi/10.3.1/../../../../arm-none-eabi/lib/thumb/v7e-m+fp/hard\libg_nano.a(lib_a-fwalk.o)
 .bss           0x00000000        0x0 c:/renesas/synergy/e2studio_v2022-04_ssp_v2.3.0/toolchains/gcc_arm/gcc-arm-none-eabi-10.3-2021.10/bin/../lib/gcc/arm-none-eabi/10.3.1/../../../../arm-none-eabi/lib/thumb/v7e-m+fp/hard\libg_nano.a(lib_a-fwalk.o)
 .text._fwalk   0x00000000       0x3a c:/renesas/synergy/e2studio_v2022-04_ssp_v2.3.0/toolchains/gcc_arm/gcc-arm-none-eabi-10.3-2021.10/bin/../lib/gcc/arm-none-eabi/10.3.1/../../../../arm-none-eabi/lib/thumb/v7e-m+fp/hard\libg_nano.a(lib_a-fwalk.o)
 .text          0x00000000        0x0 c:/renesas/synergy/e2studio_v2022-04_ssp_v2.3.0/toolchains/gcc_arm/gcc-arm-none-eabi-10.3-2021.10/bin/../lib/gcc/arm-none-eabi/10.3.1/../../../../arm-none-eabi/lib/thumb/v7e-m+fp/hard\libg_nano.a(lib_a-lock.o)
 .data          0x00000000        0x0 c:/renesas/synergy/e2studio_v2022-04_ssp_v2.3.0/toolchains/gcc_arm/gcc-arm-none-eabi-10.3-2021.10/bin/../lib/gcc/arm-none-eabi/10.3.1/../../../../arm-none-eabi/lib/thumb/v7e-m+fp/hard\libg_nano.a(lib_a-lock.o)
 .bss           0x00000000        0x0 c:/renesas/synergy/e2studio_v2022-04_ssp_v2.3.0/toolchains/gcc_arm/gcc-arm-none-eabi-10.3-2021.10/bin/../lib/gcc/arm-none-eabi/10.3.1/../../../../arm-none-eabi/lib/thumb/v7e-m+fp/hard\libg_nano.a(lib_a-lock.o)
 .text.__retarget_lock_init
                0x00000000        0x2 c:/renesas/synergy/e2studio_v2022-04_ssp_v2.3.0/toolchains/gcc_arm/gcc-arm-none-eabi-10.3-2021.10/bin/../lib/gcc/arm-none-eabi/10.3.1/../../../../arm-none-eabi/lib/thumb/v7e-m+fp/hard\libg_nano.a(lib_a-lock.o)
 .text.__retarget_lock_close
                0x00000000        0x2 c:/renesas/synergy/e2studio_v2022-04_ssp_v2.3.0/toolchains/gcc_arm/gcc-arm-none-eabi-10.3-2021.10/bin/../lib/gcc/arm-none-eabi/10.3.1/../../../../arm-none-eabi/lib/thumb/v7e-m+fp/hard\libg_nano.a(lib_a-lock.o)
 .text.__retarget_lock_close_recursive
                0x00000000        0x2 c:/renesas/synergy/e2studio_v2022-04_ssp_v2.3.0/toolchains/gcc_arm/gcc-arm-none-eabi-10.3-2021.10/bin/../lib/gcc/arm-none-eabi/10.3.1/../../../../arm-none-eabi/lib/thumb/v7e-m+fp/hard\libg_nano.a(lib_a-lock.o)
 .text.__retarget_lock_acquire
                0x00000000        0x2 c:/renesas/synergy/e2studio_v2022-04_ssp_v2.3.0/toolchains/gcc_arm/gcc-arm-none-eabi-10.3-2021.10/bin/../lib/gcc/arm-none-eabi/10.3.1/../../../../arm-none-eabi/lib/thumb/v7e-m+fp/hard\libg_nano.a(lib_a-lock.o)
 .text.__retarget_lock_try_acquire
                0x00000000        0x4 c:/renesas/synergy/e2studio_v2022-04_ssp_v2.3.0/toolchains/gcc_arm/gcc-arm-none-eabi-10.3-2021.10/bin/../lib/gcc/arm-none-eabi/10.3.1/../../../../arm-none-eabi/lib/thumb/v7e-m+fp/hard\libg_nano.a(lib_a-lock.o)
 .text.__retarget_lock_try_acquire_recursive
                0x00000000        0x4 c:/renesas/synergy/e2studio_v2022-04_ssp_v2.3.0/toolchains/gcc_arm/gcc-arm-none-eabi-10.3-2021.10/bin/../lib/gcc/arm-none-eabi/10.3.1/../../../../arm-none-eabi/lib/thumb/v7e-m+fp/hard\libg_nano.a(lib_a-lock.o)
 .text.__retarget_lock_release
                0x00000000        0x2 c:/renesas/synergy/e2studio_v2022-04_ssp_v2.3.0/toolchains/gcc_arm/gcc-arm-none-eabi-10.3-2021.10/bin/../lib/gcc/arm-none-eabi/10.3.1/../../../../arm-none-eabi/lib/thumb/v7e-m+fp/hard\libg_nano.a(lib_a-lock.o)
 .bss.__lock___arc4random_mutex
                0x00000000        0x1 c:/renesas/synergy/e2studio_v2022-04_ssp_v2.3.0/toolchains/gcc_arm/gcc-arm-none-eabi-10.3-2021.10/bin/../lib/gcc/arm-none-eabi/10.3.1/../../../../arm-none-eabi/lib/thumb/v7e-m+fp/hard\libg_nano.a(lib_a-lock.o)
 .bss.__lock___at_quick_exit_mutex
                0x00000000        0x1 c:/renesas/synergy/e2studio_v2022-04_ssp_v2.3.0/toolchains/gcc_arm/gcc-arm-none-eabi-10.3-2021.10/bin/../lib/gcc/arm-none-eabi/10.3.1/../../../../arm-none-eabi/lib/thumb/v7e-m+fp/hard\libg_nano.a(lib_a-lock.o)
 .bss.__lock___atexit_recursive_mutex
                0x00000000        0x1 c:/renesas/synergy/e2studio_v2022-04_ssp_v2.3.0/toolchains/gcc_arm/gcc-arm-none-eabi-10.3-2021.10/bin/../lib/gcc/arm-none-eabi/10.3.1/../../../../arm-none-eabi/lib/thumb/v7e-m+fp/hard\libg_nano.a(lib_a-lock.o)
 .bss.__lock___dd_hash_mutex
                0x00000000        0x1 c:/renesas/synergy/e2studio_v2022-04_ssp_v2.3.0/toolchains/gcc_arm/gcc-arm-none-eabi-10.3-2021.10/bin/../lib/gcc/arm-none-eabi/10.3.1/../../../../arm-none-eabi/lib/thumb/v7e-m+fp/hard\libg_nano.a(lib_a-lock.o)
 .bss.__lock___env_recursive_mutex
                0x00000000        0x1 c:/renesas/synergy/e2studio_v2022-04_ssp_v2.3.0/toolchains/gcc_arm/gcc-arm-none-eabi-10.3-2021.10/bin/../lib/gcc/arm-none-eabi/10.3.1/../../../../arm-none-eabi/lib/thumb/v7e-m+fp/hard\libg_nano.a(lib_a-lock.o)
 .bss.__lock___tz_mutex
                0x00000000        0x1 c:/renesas/synergy/e2studio_v2022-04_ssp_v2.3.0/toolchains/gcc_arm/gcc-arm-none-eabi-10.3-2021.10/bin/../lib/gcc/arm-none-eabi/10.3.1/../../../../arm-none-eabi/lib/thumb/v7e-m+fp/hard\libg_nano.a(lib_a-lock.o)
 .text          0x00000000        0x0 c:/renesas/synergy/e2studio_v2022-04_ssp_v2.3.0/toolchains/gcc_arm/gcc-arm-none-eabi-10.3-2021.10/bin/../lib/gcc/arm-none-eabi/10.3.1/../../../../arm-none-eabi/lib/thumb/v7e-m+fp/hard\libg_nano.a(lib_a-makebuf.o)
 .data          0x00000000        0x0 c:/renesas/synergy/e2studio_v2022-04_ssp_v2.3.0/toolchains/gcc_arm/gcc-arm-none-eabi-10.3-2021.10/bin/../lib/gcc/arm-none-eabi/10.3.1/../../../../arm-none-eabi/lib/thumb/v7e-m+fp/hard\libg_nano.a(lib_a-makebuf.o)
 .bss           0x00000000        0x0 c:/renesas/synergy/e2studio_v2022-04_ssp_v2.3.0/toolchains/gcc_arm/gcc-arm-none-eabi-10.3-2021.10/bin/../lib/gcc/arm-none-eabi/10.3.1/../../../../arm-none-eabi/lib/thumb/v7e-m+fp/hard\libg_nano.a(lib_a-makebuf.o)
 .data          0x00000000        0x0 c:/renesas/synergy/e2studio_v2022-04_ssp_v2.3.0/toolchains/gcc_arm/gcc-arm-none-eabi-10.3-2021.10/bin/../lib/gcc/arm-none-eabi/10.3.1/../../../../arm-none-eabi/lib/thumb/v7e-m+fp/hard\libg_nano.a(lib_a-memchr.o)
 .bss           0x00000000        0x0 c:/renesas/synergy/e2studio_v2022-04_ssp_v2.3.0/toolchains/gcc_arm/gcc-arm-none-eabi-10.3-2021.10/bin/../lib/gcc/arm-none-eabi/10.3.1/../../../../arm-none-eabi/lib/thumb/v7e-m+fp/hard\libg_nano.a(lib_a-memchr.o)
 .text          0x00000000        0x0 c:/renesas/synergy/e2studio_v2022-04_ssp_v2.3.0/toolchains/gcc_arm/gcc-arm-none-eabi-10.3-2021.10/bin/../lib/gcc/arm-none-eabi/10.3.1/../../../../arm-none-eabi/lib/thumb/v7e-m+fp/hard\libg_nano.a(lib_a-memmove.o)
 .data          0x00000000        0x0 c:/renesas/synergy/e2studio_v2022-04_ssp_v2.3.0/toolchains/gcc_arm/gcc-arm-none-eabi-10.3-2021.10/bin/../lib/gcc/arm-none-eabi/10.3.1/../../../../arm-none-eabi/lib/thumb/v7e-m+fp/hard\libg_nano.a(lib_a-memmove.o)
 .bss           0x00000000        0x0 c:/renesas/synergy/e2studio_v2022-04_ssp_v2.3.0/toolchains/gcc_arm/gcc-arm-none-eabi-10.3-2021.10/bin/../lib/gcc/arm-none-eabi/10.3.1/../../../../arm-none-eabi/lib/thumb/v7e-m+fp/hard\libg_nano.a(lib_a-memmove.o)
 .text.memmove  0x00000000       0x34 c:/renesas/synergy/e2studio_v2022-04_ssp_v2.3.0/toolchains/gcc_arm/gcc-arm-none-eabi-10.3-2021.10/bin/../lib/gcc/arm-none-eabi/10.3.1/../../../../arm-none-eabi/lib/thumb/v7e-m+fp/hard\libg_nano.a(lib_a-memmove.o)
 .debug_frame   0x00000000       0x28 c:/renesas/synergy/e2studio_v2022-04_ssp_v2.3.0/toolchains/gcc_arm/gcc-arm-none-eabi-10.3-2021.10/bin/../lib/gcc/arm-none-eabi/10.3.1/../../../../arm-none-eabi/lib/thumb/v7e-m+fp/hard\libg_nano.a(lib_a-memmove.o)
 .ARM.attributes
                0x00000000       0x34 c:/renesas/synergy/e2studio_v2022-04_ssp_v2.3.0/toolchains/gcc_arm/gcc-arm-none-eabi-10.3-2021.10/bin/../lib/gcc/arm-none-eabi/10.3.1/../../../../arm-none-eabi/lib/thumb/v7e-m+fp/hard\libg_nano.a(lib_a-memmove.o)
 .text          0x00000000        0x0 c:/renesas/synergy/e2studio_v2022-04_ssp_v2.3.0/toolchains/gcc_arm/gcc-arm-none-eabi-10.3-2021.10/bin/../lib/gcc/arm-none-eabi/10.3.1/../../../../arm-none-eabi/lib/thumb/v7e-m+fp/hard\libg_nano.a(lib_a-mlock.o)
 .data          0x00000000        0x0 c:/renesas/synergy/e2studio_v2022-04_ssp_v2.3.0/toolchains/gcc_arm/gcc-arm-none-eabi-10.3-2021.10/bin/../lib/gcc/arm-none-eabi/10.3.1/../../../../arm-none-eabi/lib/thumb/v7e-m+fp/hard\libg_nano.a(lib_a-mlock.o)
 .bss           0x00000000        0x0 c:/renesas/synergy/e2studio_v2022-04_ssp_v2.3.0/toolchains/gcc_arm/gcc-arm-none-eabi-10.3-2021.10/bin/../lib/gcc/arm-none-eabi/10.3.1/../../../../arm-none-eabi/lib/thumb/v7e-m+fp/hard\libg_nano.a(lib_a-mlock.o)
 .text          0x00000000        0x0 c:/renesas/synergy/e2studio_v2022-04_ssp_v2.3.0/toolchains/gcc_arm/gcc-arm-none-eabi-10.3-2021.10/bin/../lib/gcc/arm-none-eabi/10.3.1/../../../../arm-none-eabi/lib/thumb/v7e-m+fp/hard\libg_nano.a(lib_a-nano-reallocr.o)
 .data          0x00000000        0x0 c:/renesas/synergy/e2studio_v2022-04_ssp_v2.3.0/toolchains/gcc_arm/gcc-arm-none-eabi-10.3-2021.10/bin/../lib/gcc/arm-none-eabi/10.3.1/../../../../arm-none-eabi/lib/thumb/v7e-m+fp/hard\libg_nano.a(lib_a-nano-reallocr.o)
 .bss           0x00000000        0x0 c:/renesas/synergy/e2studio_v2022-04_ssp_v2.3.0/toolchains/gcc_arm/gcc-arm-none-eabi-10.3-2021.10/bin/../lib/gcc/arm-none-eabi/10.3.1/../../../../arm-none-eabi/lib/thumb/v7e-m+fp/hard\libg_nano.a(lib_a-nano-reallocr.o)
 .text._realloc_r
                0x00000000       0x5e c:/renesas/synergy/e2studio_v2022-04_ssp_v2.3.0/toolchains/gcc_arm/gcc-arm-none-eabi-10.3-2021.10/bin/../lib/gcc/arm-none-eabi/10.3.1/../../../../arm-none-eabi/lib/thumb/v7e-m+fp/hard\libg_nano.a(lib_a-nano-reallocr.o)
 .debug_frame   0x00000000       0x3c c:/renesas/synergy/e2studio_v2022-04_ssp_v2.3.0/toolchains/gcc_arm/gcc-arm-none-eabi-10.3-2021.10/bin/../lib/gcc/arm-none-eabi/10.3.1/../../../../arm-none-eabi/lib/thumb/v7e-m+fp/hard\libg_nano.a(lib_a-nano-reallocr.o)
 .ARM.attributes
                0x00000000       0x34 c:/renesas/synergy/e2studio_v2022-04_ssp_v2.3.0/toolchains/gcc_arm/gcc-arm-none-eabi-10.3-2021.10/bin/../lib/gcc/arm-none-eabi/10.3.1/../../../../arm-none-eabi/lib/thumb/v7e-m+fp/hard\libg_nano.a(lib_a-nano-reallocr.o)
 .text          0x00000000        0x0 c:/renesas/synergy/e2studio_v2022-04_ssp_v2.3.0/toolchains/gcc_arm/gcc-arm-none-eabi-10.3-2021.10/bin/../lib/gcc/arm-none-eabi/10.3.1/../../../../arm-none-eabi/lib/thumb/v7e-m+fp/hard\libg_nano.a(lib_a-reent.o)
 .data          0x00000000        0x0 c:/renesas/synergy/e2studio_v2022-04_ssp_v2.3.0/toolchains/gcc_arm/gcc-arm-none-eabi-10.3-2021.10/bin/../lib/gcc/arm-none-eabi/10.3.1/../../../../arm-none-eabi/lib/thumb/v7e-m+fp/hard\libg_nano.a(lib_a-reent.o)
 .bss           0x00000000        0x0 c:/renesas/synergy/e2studio_v2022-04_ssp_v2.3.0/toolchains/gcc_arm/gcc-arm-none-eabi-10.3-2021.10/bin/../lib/gcc/arm-none-eabi/10.3.1/../../../../arm-none-eabi/lib/thumb/v7e-m+fp/hard\libg_nano.a(lib_a-reent.o)
 .text.cleanup_glue
                0x00000000       0x1a c:/renesas/synergy/e2studio_v2022-04_ssp_v2.3.0/toolchains/gcc_arm/gcc-arm-none-eabi-10.3-2021.10/bin/../lib/gcc/arm-none-eabi/10.3.1/../../../../arm-none-eabi/lib/thumb/v7e-m+fp/hard\libg_nano.a(lib_a-reent.o)
 .text._reclaim_reent
                0x00000000       0xb8 c:/renesas/synergy/e2studio_v2022-04_ssp_v2.3.0/toolchains/gcc_arm/gcc-arm-none-eabi-10.3-2021.10/bin/../lib/gcc/arm-none-eabi/10.3.1/../../../../arm-none-eabi/lib/thumb/v7e-m+fp/hard\libg_nano.a(lib_a-reent.o)
 .text          0x00000000        0x0 c:/renesas/synergy/e2studio_v2022-04_ssp_v2.3.0/toolchains/gcc_arm/gcc-arm-none-eabi-10.3-2021.10/bin/../lib/gcc/arm-none-eabi/10.3.1/../../../../arm-none-eabi/lib/thumb/v7e-m+fp/hard\libg_nano.a(lib_a-signal.o)
 .data          0x00000000        0x0 c:/renesas/synergy/e2studio_v2022-04_ssp_v2.3.0/toolchains/gcc_arm/gcc-arm-none-eabi-10.3-2021.10/bin/../lib/gcc/arm-none-eabi/10.3.1/../../../../arm-none-eabi/lib/thumb/v7e-m+fp/hard\libg_nano.a(lib_a-signal.o)
 .bss           0x00000000        0x0 c:/renesas/synergy/e2studio_v2022-04_ssp_v2.3.0/toolchains/gcc_arm/gcc-arm-none-eabi-10.3-2021.10/bin/../lib/gcc/arm-none-eabi/10.3.1/../../../../arm-none-eabi/lib/thumb/v7e-m+fp/hard\libg_nano.a(lib_a-signal.o)
 .text._init_signal_r
                0x00000000       0x28 c:/renesas/synergy/e2studio_v2022-04_ssp_v2.3.0/toolchains/gcc_arm/gcc-arm-none-eabi-10.3-2021.10/bin/../lib/gcc/arm-none-eabi/10.3.1/../../../../arm-none-eabi/lib/thumb/v7e-m+fp/hard\libg_nano.a(lib_a-signal.o)
 .text._signal_r
                0x00000000       0x30 c:/renesas/synergy/e2studio_v2022-04_ssp_v2.3.0/toolchains/gcc_arm/gcc-arm-none-eabi-10.3-2021.10/bin/../lib/gcc/arm-none-eabi/10.3.1/../../../../arm-none-eabi/lib/thumb/v7e-m+fp/hard\libg_nano.a(lib_a-signal.o)
 .text.__sigtramp_r
                0x00000000       0x48 c:/renesas/synergy/e2studio_v2022-04_ssp_v2.3.0/toolchains/gcc_arm/gcc-arm-none-eabi-10.3-2021.10/bin/../lib/gcc/arm-none-eabi/10.3.1/../../../../arm-none-eabi/lib/thumb/v7e-m+fp/hard\libg_nano.a(lib_a-signal.o)
 .text.signal   0x00000000       0x10 c:/renesas/synergy/e2studio_v2022-04_ssp_v2.3.0/toolchains/gcc_arm/gcc-arm-none-eabi-10.3-2021.10/bin/../lib/gcc/arm-none-eabi/10.3.1/../../../../arm-none-eabi/lib/thumb/v7e-m+fp/hard\libg_nano.a(lib_a-signal.o)
 .text._init_signal
                0x00000000        0xc c:/renesas/synergy/e2studio_v2022-04_ssp_v2.3.0/toolchains/gcc_arm/gcc-arm-none-eabi-10.3-2021.10/bin/../lib/gcc/arm-none-eabi/10.3.1/../../../../arm-none-eabi/lib/thumb/v7e-m+fp/hard\libg_nano.a(lib_a-signal.o)
 .text.__sigtramp
                0x00000000       0x10 c:/renesas/synergy/e2studio_v2022-04_ssp_v2.3.0/toolchains/gcc_arm/gcc-arm-none-eabi-10.3-2021.10/bin/../lib/gcc/arm-none-eabi/10.3.1/../../../../arm-none-eabi/lib/thumb/v7e-m+fp/hard\libg_nano.a(lib_a-signal.o)
 .text          0x00000000        0x0 c:/renesas/synergy/e2studio_v2022-04_ssp_v2.3.0/toolchains/gcc_arm/gcc-arm-none-eabi-10.3-2021.10/bin/../lib/gcc/arm-none-eabi/10.3.1/../../../../arm-none-eabi/lib/thumb/v7e-m+fp/hard\libg_nano.a(lib_a-signalr.o)
 .data          0x00000000        0x0 c:/renesas/synergy/e2studio_v2022-04_ssp_v2.3.0/toolchains/gcc_arm/gcc-arm-none-eabi-10.3-2021.10/bin/../lib/gcc/arm-none-eabi/10.3.1/../../../../arm-none-eabi/lib/thumb/v7e-m+fp/hard\libg_nano.a(lib_a-signalr.o)
 .bss           0x00000000        0x0 c:/renesas/synergy/e2studio_v2022-04_ssp_v2.3.0/toolchains/gcc_arm/gcc-arm-none-eabi-10.3-2021.10/bin/../lib/gcc/arm-none-eabi/10.3.1/../../../../arm-none-eabi/lib/thumb/v7e-m+fp/hard\libg_nano.a(lib_a-signalr.o)
 .text          0x00000000        0x0 c:/renesas/synergy/e2studio_v2022-04_ssp_v2.3.0/toolchains/gcc_arm/gcc-arm-none-eabi-10.3-2021.10/bin/../lib/gcc/arm-none-eabi/10.3.1/../../../../arm-none-eabi/lib/thumb/v7e-m+fp/hard\libg_nano.a(lib_a-stdio.o)
 .data          0x00000000        0x0 c:/renesas/synergy/e2studio_v2022-04_ssp_v2.3.0/toolchains/gcc_arm/gcc-arm-none-eabi-10.3-2021.10/bin/../lib/gcc/arm-none-eabi/10.3.1/../../../../arm-none-eabi/lib/thumb/v7e-m+fp/hard\libg_nano.a(lib_a-stdio.o)
 .bss           0x00000000        0x0 c:/renesas/synergy/e2studio_v2022-04_ssp_v2.3.0/toolchains/gcc_arm/gcc-arm-none-eabi-10.3-2021.10/bin/../lib/gcc/arm-none-eabi/10.3.1/../../../../arm-none-eabi/lib/thumb/v7e-m+fp/hard\libg_nano.a(lib_a-stdio.o)
 .text.__seofread
                0x00000000        0x4 c:/renesas/synergy/e2studio_v2022-04_ssp_v2.3.0/toolchains/gcc_arm/gcc-arm-none-eabi-10.3-2021.10/bin/../lib/gcc/arm-none-eabi/10.3.1/../../../../arm-none-eabi/lib/thumb/v7e-m+fp/hard\libg_nano.a(lib_a-stdio.o)
 .text          0x00000000        0x0 c:/renesas/synergy/e2studio_v2022-04_ssp_v2.3.0/toolchains/gcc_arm/gcc-arm-none-eabi-10.3-2021.10/bin/../lib/gcc/arm-none-eabi/10.3.1/../../../../arm-none-eabi/lib/thumb/v7e-m+fp/hard\libg_nano.a(lib_a-writer.o)
 .data          0x00000000        0x0 c:/renesas/synergy/e2studio_v2022-04_ssp_v2.3.0/toolchains/gcc_arm/gcc-arm-none-eabi-10.3-2021.10/bin/../lib/gcc/arm-none-eabi/10.3.1/../../../../arm-none-eabi/lib/thumb/v7e-m+fp/hard\libg_nano.a(lib_a-writer.o)
 .bss           0x00000000        0x0 c:/renesas/synergy/e2studio_v2022-04_ssp_v2.3.0/toolchains/gcc_arm/gcc-arm-none-eabi-10.3-2021.10/bin/../lib/gcc/arm-none-eabi/10.3.1/../../../../arm-none-eabi/lib/thumb/v7e-m+fp/hard\libg_nano.a(lib_a-writer.o)
 .text          0x00000000        0x0 c:/renesas/synergy/e2studio_v2022-04_ssp_v2.3.0/toolchains/gcc_arm/gcc-arm-none-eabi-10.3-2021.10/bin/../lib/gcc/arm-none-eabi/10.3.1/../../../../arm-none-eabi/lib/thumb/v7e-m+fp/hard\libg_nano.a(lib_a-closer.o)
 .data          0x00000000        0x0 c:/renesas/synergy/e2studio_v2022-04_ssp_v2.3.0/toolchains/gcc_arm/gcc-arm-none-eabi-10.3-2021.10/bin/../lib/gcc/arm-none-eabi/10.3.1/../../../../arm-none-eabi/lib/thumb/v7e-m+fp/hard\libg_nano.a(lib_a-closer.o)
 .bss           0x00000000        0x0 c:/renesas/synergy/e2studio_v2022-04_ssp_v2.3.0/toolchains/gcc_arm/gcc-arm-none-eabi-10.3-2021.10/bin/../lib/gcc/arm-none-eabi/10.3.1/../../../../arm-none-eabi/lib/thumb/v7e-m+fp/hard\libg_nano.a(lib_a-closer.o)
 .text          0x00000000        0x0 c:/renesas/synergy/e2studio_v2022-04_ssp_v2.3.0/toolchains/gcc_arm/gcc-arm-none-eabi-10.3-2021.10/bin/../lib/gcc/arm-none-eabi/10.3.1/../../../../arm-none-eabi/lib/thumb/v7e-m+fp/hard\libg_nano.a(lib_a-fstatr.o)
 .data          0x00000000        0x0 c:/renesas/synergy/e2studio_v2022-04_ssp_v2.3.0/toolchains/gcc_arm/gcc-arm-none-eabi-10.3-2021.10/bin/../lib/gcc/arm-none-eabi/10.3.1/../../../../arm-none-eabi/lib/thumb/v7e-m+fp/hard\libg_nano.a(lib_a-fstatr.o)
 .bss           0x00000000        0x0 c:/renesas/synergy/e2studio_v2022-04_ssp_v2.3.0/toolchains/gcc_arm/gcc-arm-none-eabi-10.3-2021.10/bin/../lib/gcc/arm-none-eabi/10.3.1/../../../../arm-none-eabi/lib/thumb/v7e-m+fp/hard\libg_nano.a(lib_a-fstatr.o)
 .text          0x00000000        0x0 c:/renesas/synergy/e2studio_v2022-04_ssp_v2.3.0/toolchains/gcc_arm/gcc-arm-none-eabi-10.3-2021.10/bin/../lib/gcc/arm-none-eabi/10.3.1/../../../../arm-none-eabi/lib/thumb/v7e-m+fp/hard\libg_nano.a(lib_a-isattyr.o)
 .data          0x00000000        0x0 c:/renesas/synergy/e2studio_v2022-04_ssp_v2.3.0/toolchains/gcc_arm/gcc-arm-none-eabi-10.3-2021.10/bin/../lib/gcc/arm-none-eabi/10.3.1/../../../../arm-none-eabi/lib/thumb/v7e-m+fp/hard\libg_nano.a(lib_a-isattyr.o)
 .bss           0x00000000        0x0 c:/renesas/synergy/e2studio_v2022-04_ssp_v2.3.0/toolchains/gcc_arm/gcc-arm-none-eabi-10.3-2021.10/bin/../lib/gcc/arm-none-eabi/10.3.1/../../../../arm-none-eabi/lib/thumb/v7e-m+fp/hard\libg_nano.a(lib_a-isattyr.o)
 .text          0x00000000        0x0 c:/renesas/synergy/e2studio_v2022-04_ssp_v2.3.0/toolchains/gcc_arm/gcc-arm-none-eabi-10.3-2021.10/bin/../lib/gcc/arm-none-eabi/10.3.1/../../../../arm-none-eabi/lib/thumb/v7e-m+fp/hard\libg_nano.a(lib_a-lseekr.o)
 .data          0x00000000        0x0 c:/renesas/synergy/e2studio_v2022-04_ssp_v2.3.0/toolchains/gcc_arm/gcc-arm-none-eabi-10.3-2021.10/bin/../lib/gcc/arm-none-eabi/10.3.1/../../../../arm-none-eabi/lib/thumb/v7e-m+fp/hard\libg_nano.a(lib_a-lseekr.o)
 .bss           0x00000000        0x0 c:/renesas/synergy/e2studio_v2022-04_ssp_v2.3.0/toolchains/gcc_arm/gcc-arm-none-eabi-10.3-2021.10/bin/../lib/gcc/arm-none-eabi/10.3.1/../../../../arm-none-eabi/lib/thumb/v7e-m+fp/hard\libg_nano.a(lib_a-lseekr.o)
 .text          0x00000000        0x0 c:/renesas/synergy/e2studio_v2022-04_ssp_v2.3.0/toolchains/gcc_arm/gcc-arm-none-eabi-10.3-2021.10/bin/../lib/gcc/arm-none-eabi/10.3.1/../../../../arm-none-eabi/lib/thumb/v7e-m+fp/hard\libg_nano.a(lib_a-nano-msizer.o)
 .data          0x00000000        0x0 c:/renesas/synergy/e2studio_v2022-04_ssp_v2.3.0/toolchains/gcc_arm/gcc-arm-none-eabi-10.3-2021.10/bin/../lib/gcc/arm-none-eabi/10.3.1/../../../../arm-none-eabi/lib/thumb/v7e-m+fp/hard\libg_nano.a(lib_a-nano-msizer.o)
 .bss           0x00000000        0x0 c:/renesas/synergy/e2studio_v2022-04_ssp_v2.3.0/toolchains/gcc_arm/gcc-arm-none-eabi-10.3-2021.10/bin/../lib/gcc/arm-none-eabi/10.3.1/../../../../arm-none-eabi/lib/thumb/v7e-m+fp/hard\libg_nano.a(lib_a-nano-msizer.o)
 .text._malloc_usable_size_r
                0x00000000       0x10 c:/renesas/synergy/e2studio_v2022-04_ssp_v2.3.0/toolchains/gcc_arm/gcc-arm-none-eabi-10.3-2021.10/bin/../lib/gcc/arm-none-eabi/10.3.1/../../../../arm-none-eabi/lib/thumb/v7e-m+fp/hard\libg_nano.a(lib_a-nano-msizer.o)
 .debug_frame   0x00000000       0x20 c:/renesas/synergy/e2studio_v2022-04_ssp_v2.3.0/toolchains/gcc_arm/gcc-arm-none-eabi-10.3-2021.10/bin/../lib/gcc/arm-none-eabi/10.3.1/../../../../arm-none-eabi/lib/thumb/v7e-m+fp/hard\libg_nano.a(lib_a-nano-msizer.o)
 .ARM.attributes
                0x00000000       0x34 c:/renesas/synergy/e2studio_v2022-04_ssp_v2.3.0/toolchains/gcc_arm/gcc-arm-none-eabi-10.3-2021.10/bin/../lib/gcc/arm-none-eabi/10.3.1/../../../../arm-none-eabi/lib/thumb/v7e-m+fp/hard\libg_nano.a(lib_a-nano-msizer.o)
 .text          0x00000000        0x0 c:/renesas/synergy/e2studio_v2022-04_ssp_v2.3.0/toolchains/gcc_arm/gcc-arm-none-eabi-10.3-2021.10/bin/../lib/gcc/arm-none-eabi/10.3.1/../../../../arm-none-eabi/lib/thumb/v7e-m+fp/hard\libg_nano.a(lib_a-readr.o)
 .data          0x00000000        0x0 c:/renesas/synergy/e2studio_v2022-04_ssp_v2.3.0/toolchains/gcc_arm/gcc-arm-none-eabi-10.3-2021.10/bin/../lib/gcc/arm-none-eabi/10.3.1/../../../../arm-none-eabi/lib/thumb/v7e-m+fp/hard\libg_nano.a(lib_a-readr.o)
 .bss           0x00000000        0x0 c:/renesas/synergy/e2studio_v2022-04_ssp_v2.3.0/toolchains/gcc_arm/gcc-arm-none-eabi-10.3-2021.10/bin/../lib/gcc/arm-none-eabi/10.3.1/../../../../arm-none-eabi/lib/thumb/v7e-m+fp/hard\libg_nano.a(lib_a-readr.o)
 .text          0x00000000        0x0 c:/renesas/synergy/e2studio_v2022-04_ssp_v2.3.0/toolchains/gcc_arm/gcc-arm-none-eabi-10.3-2021.10/bin/../lib/gcc/arm-none-eabi/10.3.1/../../../../arm-none-eabi/lib/thumb/v7e-m+fp/hard\librdimon_nano.a(rdimon-syscalls.o)
 .data          0x00000000        0x0 c:/renesas/synergy/e2studio_v2022-04_ssp_v2.3.0/toolchains/gcc_arm/gcc-arm-none-eabi-10.3-2021.10/bin/../lib/gcc/arm-none-eabi/10.3.1/../../../../arm-none-eabi/lib/thumb/v7e-m+fp/hard\librdimon_nano.a(rdimon-syscalls.o)
 .bss           0x00000000        0x0 c:/renesas/synergy/e2studio_v2022-04_ssp_v2.3.0/toolchains/gcc_arm/gcc-arm-none-eabi-10.3-2021.10/bin/../lib/gcc/arm-none-eabi/10.3.1/../../../../arm-none-eabi/lib/thumb/v7e-m+fp/hard\librdimon_nano.a(rdimon-syscalls.o)
 .text._sbrk    0x00000000       0x48 c:/renesas/synergy/e2studio_v2022-04_ssp_v2.3.0/toolchains/gcc_arm/gcc-arm-none-eabi-10.3-2021.10/bin/../lib/gcc/arm-none-eabi/10.3.1/../../../../arm-none-eabi/lib/thumb/v7e-m+fp/hard\librdimon_nano.a(rdimon-syscalls.o)
 .text._open    0x00000000       0x12 c:/renesas/synergy/e2studio_v2022-04_ssp_v2.3.0/toolchains/gcc_arm/gcc-arm-none-eabi-10.3-2021.10/bin/../lib/gcc/arm-none-eabi/10.3.1/../../../../arm-none-eabi/lib/thumb/v7e-m+fp/hard\librdimon_nano.a(rdimon-syscalls.o)
 .text._has_ext_stdout_stderr
                0x00000000       0x18 c:/renesas/synergy/e2studio_v2022-04_ssp_v2.3.0/toolchains/gcc_arm/gcc-arm-none-eabi-10.3-2021.10/bin/../lib/gcc/arm-none-eabi/10.3.1/../../../../arm-none-eabi/lib/thumb/v7e-m+fp/hard\librdimon_nano.a(rdimon-syscalls.o)
 .rodata.initialise_monitor_handles.str1.1
                0x00000000        0x4 c:/renesas/synergy/e2studio_v2022-04_ssp_v2.3.0/toolchains/gcc_arm/gcc-arm-none-eabi-10.3-2021.10/bin/../lib/gcc/arm-none-eabi/10.3.1/../../../../arm-none-eabi/lib/thumb/v7e-m+fp/hard\librdimon_nano.a(rdimon-syscalls.o)
 .text.initialise_monitor_handles
                0x00000000       0xc0 c:/renesas/synergy/e2studio_v2022-04_ssp_v2.3.0/toolchains/gcc_arm/gcc-arm-none-eabi-10.3-2021.10/bin/../lib/gcc/arm-none-eabi/10.3.1/../../../../arm-none-eabi/lib/thumb/v7e-m+fp/hard\librdimon_nano.a(rdimon-syscalls.o)
 .text._link    0x00000000       0x10 c:/renesas/synergy/e2studio_v2022-04_ssp_v2.3.0/toolchains/gcc_arm/gcc-arm-none-eabi-10.3-2021.10/bin/../lib/gcc/arm-none-eabi/10.3.1/../../../../arm-none-eabi/lib/thumb/v7e-m+fp/hard\librdimon_nano.a(rdimon-syscalls.o)
 .text._unlink  0x00000000       0x28 c:/renesas/synergy/e2studio_v2022-04_ssp_v2.3.0/toolchains/gcc_arm/gcc-arm-none-eabi-10.3-2021.10/bin/../lib/gcc/arm-none-eabi/10.3.1/../../../../arm-none-eabi/lib/thumb/v7e-m+fp/hard\librdimon_nano.a(rdimon-syscalls.o)
 .text._gettimeofday
                0x00000000       0x28 c:/renesas/synergy/e2studio_v2022-04_ssp_v2.3.0/toolchains/gcc_arm/gcc-arm-none-eabi-10.3-2021.10/bin/../lib/gcc/arm-none-eabi/10.3.1/../../../../arm-none-eabi/lib/thumb/v7e-m+fp/hard\librdimon_nano.a(rdimon-syscalls.o)
 .text._clock   0x00000000       0x12 c:/renesas/synergy/e2studio_v2022-04_ssp_v2.3.0/toolchains/gcc_arm/gcc-arm-none-eabi-10.3-2021.10/bin/../lib/gcc/arm-none-eabi/10.3.1/../../../../arm-none-eabi/lib/thumb/v7e-m+fp/hard\librdimon_nano.a(rdimon-syscalls.o)
 .text._times   0x00000000       0x16 c:/renesas/synergy/e2studio_v2022-04_ssp_v2.3.0/toolchains/gcc_arm/gcc-arm-none-eabi-10.3-2021.10/bin/../lib/gcc/arm-none-eabi/10.3.1/../../../../arm-none-eabi/lib/thumb/v7e-m+fp/hard\librdimon_nano.a(rdimon-syscalls.o)
 .text._system  0x00000000       0x3c c:/renesas/synergy/e2studio_v2022-04_ssp_v2.3.0/toolchains/gcc_arm/gcc-arm-none-eabi-10.3-2021.10/bin/../lib/gcc/arm-none-eabi/10.3.1/../../../../arm-none-eabi/lib/thumb/v7e-m+fp/hard\librdimon_nano.a(rdimon-syscalls.o)
 .text._rename  0x00000000       0x36 c:/renesas/synergy/e2studio_v2022-04_ssp_v2.3.0/toolchains/gcc_arm/gcc-arm-none-eabi-10.3-2021.10/bin/../lib/gcc/arm-none-eabi/10.3.1/../../../../arm-none-eabi/lib/thumb/v7e-m+fp/hard\librdimon_nano.a(rdimon-syscalls.o)
 .bss.heap_end.0
                0x00000000        0x4 c:/renesas/synergy/e2studio_v2022-04_ssp_v2.3.0/toolchains/gcc_arm/gcc-arm-none-eabi-10.3-2021.10/bin/../lib/gcc/arm-none-eabi/10.3.1/../../../../arm-none-eabi/lib/thumb/v7e-m+fp/hard\librdimon_nano.a(rdimon-syscalls.o)
 .bss.monitor_stderr
                0x00000000        0x4 c:/renesas/synergy/e2studio_v2022-04_ssp_v2.3.0/toolchains/gcc_arm/gcc-arm-none-eabi-10.3-2021.10/bin/../lib/gcc/arm-none-eabi/10.3.1/../../../../arm-none-eabi/lib/thumb/v7e-m+fp/hard\librdimon_nano.a(rdimon-syscalls.o)
 .bss.monitor_stdin
                0x00000000        0x4 c:/renesas/synergy/e2studio_v2022-04_ssp_v2.3.0/toolchains/gcc_arm/gcc-arm-none-eabi-10.3-2021.10/bin/../lib/gcc/arm-none-eabi/10.3.1/../../../../arm-none-eabi/lib/thumb/v7e-m+fp/hard\librdimon_nano.a(rdimon-syscalls.o)
 .bss.monitor_stdout
                0x00000000        0x4 c:/renesas/synergy/e2studio_v2022-04_ssp_v2.3.0/toolchains/gcc_arm/gcc-arm-none-eabi-10.3-2021.10/bin/../lib/gcc/arm-none-eabi/10.3.1/../../../../arm-none-eabi/lib/thumb/v7e-m+fp/hard\librdimon_nano.a(rdimon-syscalls.o)
 .data.__heap_limit
                0x00000000        0x4 c:/renesas/synergy/e2studio_v2022-04_ssp_v2.3.0/toolchains/gcc_arm/gcc-arm-none-eabi-10.3-2021.10/bin/../lib/gcc/arm-none-eabi/10.3.1/../../../../arm-none-eabi/lib/thumb/v7e-m+fp/hard\librdimon_nano.a(rdimon-syscalls.o)
 .text          0x00000000        0x0 c:/renesas/synergy/e2studio_v2022-04_ssp_v2.3.0/toolchains/gcc_arm/gcc-arm-none-eabi-10.3-2021.10/bin/../lib/gcc/arm-none-eabi/10.3.1/../../../../arm-none-eabi/lib/thumb/v7e-m+fp/hard\librdimon_nano.a(rdimon-_exit.o)
 .data          0x00000000        0x0 c:/renesas/synergy/e2studio_v2022-04_ssp_v2.3.0/toolchains/gcc_arm/gcc-arm-none-eabi-10.3-2021.10/bin/../lib/gcc/arm-none-eabi/10.3.1/../../../../arm-none-eabi/lib/thumb/v7e-m+fp/hard\librdimon_nano.a(rdimon-_exit.o)
 .bss           0x00000000        0x0 c:/renesas/synergy/e2studio_v2022-04_ssp_v2.3.0/toolchains/gcc_arm/gcc-arm-none-eabi-10.3-2021.10/bin/../lib/gcc/arm-none-eabi/10.3.1/../../../../arm-none-eabi/lib/thumb/v7e-m+fp/hard\librdimon_nano.a(rdimon-_exit.o)
 .text          0x00000000        0x0 c:/renesas/synergy/e2studio_v2022-04_ssp_v2.3.0/toolchains/gcc_arm/gcc-arm-none-eabi-10.3-2021.10/bin/../lib/gcc/arm-none-eabi/10.3.1/../../../../arm-none-eabi/lib/thumb/v7e-m+fp/hard\librdimon_nano.a(rdimon-_kill.o)
 .data          0x00000000        0x0 c:/renesas/synergy/e2studio_v2022-04_ssp_v2.3.0/toolchains/gcc_arm/gcc-arm-none-eabi-10.3-2021.10/bin/../lib/gcc/arm-none-eabi/10.3.1/../../../../arm-none-eabi/lib/thumb/v7e-m+fp/hard\librdimon_nano.a(rdimon-_kill.o)
 .bss           0x00000000        0x0 c:/renesas/synergy/e2studio_v2022-04_ssp_v2.3.0/toolchains/gcc_arm/gcc-arm-none-eabi-10.3-2021.10/bin/../lib/gcc/arm-none-eabi/10.3.1/../../../../arm-none-eabi/lib/thumb/v7e-m+fp/hard\librdimon_nano.a(rdimon-_kill.o)
 .data          0x00000000        0x0 c:/renesas/synergy/e2studio_v2022-04_ssp_v2.3.0/toolchains/gcc_arm/gcc-arm-none-eabi-10.3-2021.10/bin/../lib/gcc/arm-none-eabi/10.3.1/../../../../arm-none-eabi/lib/thumb/v7e-m+fp/hard\libc_nano.a(lib_a-strlen.o)
 .bss           0x00000000        0x0 c:/renesas/synergy/e2studio_v2022-04_ssp_v2.3.0/toolchains/gcc_arm/gcc-arm-none-eabi-10.3-2021.10/bin/../lib/gcc/arm-none-eabi/10.3.1/../../../../arm-none-eabi/lib/thumb/v7e-m+fp/hard\libc_nano.a(lib_a-strlen.o)
 .text          0x00000000        0x0 c:/renesas/synergy/e2studio_v2022-04_ssp_v2.3.0/toolchains/gcc_arm/gcc-arm-none-eabi-10.3-2021.10/bin/../lib/gcc/arm-none-eabi/10.3.1/thumb/v7e-m+fp/hard/crtend.o
 .data          0x00000000        0x0 c:/renesas/synergy/e2studio_v2022-04_ssp_v2.3.0/toolchains/gcc_arm/gcc-arm-none-eabi-10.3-2021.10/bin/../lib/gcc/arm-none-eabi/10.3.1/thumb/v7e-m+fp/hard/crtend.o
 .bss           0x00000000        0x0 c:/renesas/synergy/e2studio_v2022-04_ssp_v2.3.0/toolchains/gcc_arm/gcc-arm-none-eabi-10.3-2021.10/bin/../lib/gcc/arm-none-eabi/10.3.1/thumb/v7e-m+fp/hard/crtend.o
 .rodata        0x00000000       0x24 c:/renesas/synergy/e2studio_v2022-04_ssp_v2.3.0/toolchains/gcc_arm/gcc-arm-none-eabi-10.3-2021.10/bin/../lib/gcc/arm-none-eabi/10.3.1/thumb/v7e-m+fp/hard/crtend.o
 .text          0x00000000        0x0 c:/renesas/synergy/e2studio_v2022-04_ssp_v2.3.0/toolchains/gcc_arm/gcc-arm-none-eabi-10.3-2021.10/bin/../lib/gcc/arm-none-eabi/10.3.1/thumb/v7e-m+fp/hard/crtn.o
 .data          0x00000000        0x0 c:/renesas/synergy/e2studio_v2022-04_ssp_v2.3.0/toolchains/gcc_arm/gcc-arm-none-eabi-10.3-2021.10/bin/../lib/gcc/arm-none-eabi/10.3.1/thumb/v7e-m+fp/hard/crtn.o
 .bss           0x00000000        0x0 c:/renesas/synergy/e2studio_v2022-04_ssp_v2.3.0/toolchains/gcc_arm/gcc-arm-none-eabi-10.3-2021.10/bin/../lib/gcc/arm-none-eabi/10.3.1/thumb/v7e-m+fp/hard/crtn.o

Memory Configuration

Name             Origin             Length             Attributes
FLASH            0x00000000         0x00400000         xr
RAM              0x1ffe0000         0x000a0000         xrw
DATA_FLASH       0x40100000         0x00010000         xr
QSPI_FLASH       0x60000000         0x04000000         xr
SDRAM            0x90000000         0x02000000         xrw
ID_CODES         0x40120050         0x00000010         xr
*default*        0x00000000         0xffffffff

Linker script and memory map

LOAD c:/renesas/synergy/e2studio_v2022-04_ssp_v2.3.0/toolchains/gcc_arm/gcc-arm-none-eabi-10.3-2021.10/bin/../lib/gcc/arm-none-eabi/10.3.1/thumb/v7e-m+fp/hard/crti.o
LOAD c:/renesas/synergy/e2studio_v2022-04_ssp_v2.3.0/toolchains/gcc_arm/gcc-arm-none-eabi-10.3-2021.10/bin/../lib/gcc/arm-none-eabi/10.3.1/thumb/v7e-m+fp/hard/crtbegin.o
LOAD c:/renesas/synergy/e2studio_v2022-04_ssp_v2.3.0/toolchains/gcc_arm/gcc-arm-none-eabi-10.3-2021.10/bin/../lib/gcc/arm-none-eabi/10.3.1/../../../../arm-none-eabi/lib/thumb/v7e-m+fp/hard/rdimon-crt0.o
START GROUP
LOAD ./synergy/ssp/src/driver/r_ioport/r_ioport.o
LOAD ./synergy/ssp/src/driver/r_elc/r_elc.o
LOAD ./synergy/ssp/src/driver/r_cgc/r_cgc.o
LOAD ./synergy/ssp/src/bsp/mcu/s7g2/bsp_cache.o
LOAD ./synergy/ssp/src/bsp/mcu/s7g2/bsp_clocks.o
LOAD ./synergy/ssp/src/bsp/mcu/s7g2/bsp_feature.o
LOAD ./synergy/ssp/src/bsp/mcu/s7g2/bsp_group_irq.o
LOAD ./synergy/ssp/src/bsp/mcu/s7g2/bsp_hw_locks.o
LOAD ./synergy/ssp/src/bsp/mcu/s7g2/bsp_module_stop.o
LOAD ./synergy/ssp/src/bsp/mcu/s7g2/bsp_rom_registers.o
LOAD ./synergy/ssp/src/bsp/mcu/all/bsp_common.o
LOAD ./synergy/ssp/src/bsp/mcu/all/bsp_common_leds.o
LOAD ./synergy/ssp/src/bsp/mcu/all/bsp_delay.o
LOAD ./synergy/ssp/src/bsp/mcu/all/bsp_irq.o
LOAD ./synergy/ssp/src/bsp/mcu/all/bsp_locking.o
LOAD ./synergy/ssp/src/bsp/mcu/all/bsp_register_protection.o
LOAD ./synergy/ssp/src/bsp/mcu/all/bsp_sbrk.o
LOAD ./synergy/ssp/src/bsp/cmsis/Device/RENESAS/S7G2/Source/startup_S7G2.o
LOAD ./synergy/ssp/src/bsp/cmsis/Device/RENESAS/S7G2/Source/system_S7G2.o
LOAD ./synergy/board/s7g2_sk/bsp_init.o
LOAD ./synergy/board/s7g2_sk/bsp_leds.o
LOAD ./synergy/board/s7g2_sk/bsp_qspi.o
LOAD ./src/synergy_gen/common_data.o
LOAD ./src/synergy_gen/hal_data.o
LOAD ./src/synergy_gen/main.o
LOAD ./src/synergy_gen/pin_data.o
LOAD ./src/hal_entry.o
LOAD C:\Users\wesle\e2_studio\workspace\hello_world_basic\synergy\ssp\src\bsp\cmsis\DSP_Lib\cm4_gcc\libDSP_Lib.a
LOAD C:\Users\wesle\e2_studio\workspace\hello_world_basic\synergy\ssp\src\bsp\cmsis\NN_Lib\cm4_gcc\libNN_Lib.a
LOAD C:\Users\wesle\e2_studio\workspace\hello_world_basic\synergy\ssp\src\driver\r_fmi\libs\libfmi_cm4_s7g2_gcc.a
LOAD C:\Users\wesle\e2_studio\workspace\hello_world_basic\synergy\ssp\src\bsp\mcu\s7g2\libfmi_R7FS7G27H3A01CFC_gcc.a
END GROUP
START GROUP
LOAD c:/renesas/synergy/e2studio_v2022-04_ssp_v2.3.0/toolchains/gcc_arm/gcc-arm-none-eabi-10.3-2021.10/bin/../lib/gcc/arm-none-eabi/10.3.1/thumb/v7e-m+fp/hard\libgcc.a
LOAD c:/renesas/synergy/e2studio_v2022-04_ssp_v2.3.0/toolchains/gcc_arm/gcc-arm-none-eabi-10.3-2021.10/bin/../lib/gcc/arm-none-eabi/10.3.1/../../../../arm-none-eabi/lib/thumb/v7e-m+fp/hard\libg_nano.a
LOAD c:/renesas/synergy/e2studio_v2022-04_ssp_v2.3.0/toolchains/gcc_arm/gcc-arm-none-eabi-10.3-2021.10/bin/../lib/gcc/arm-none-eabi/10.3.1/../../../../arm-none-eabi/lib/thumb/v7e-m+fp/hard\libc_nano.a
END GROUP
START GROUP
LOAD c:/renesas/synergy/e2studio_v2022-04_ssp_v2.3.0/toolchains/gcc_arm/gcc-arm-none-eabi-10.3-2021.10/bin/../lib/gcc/arm-none-eabi/10.3.1/thumb/v7e-m+fp/hard\libgcc.a
LOAD c:/renesas/synergy/e2studio_v2022-04_ssp_v2.3.0/toolchains/gcc_arm/gcc-arm-none-eabi-10.3-2021.10/bin/../lib/gcc/arm-none-eabi/10.3.1/../../../../arm-none-eabi/lib/thumb/v7e-m+fp/hard\libc_nano.a
LOAD c:/renesas/synergy/e2studio_v2022-04_ssp_v2.3.0/toolchains/gcc_arm/gcc-arm-none-eabi-10.3-2021.10/bin/../lib/gcc/arm-none-eabi/10.3.1/../../../../arm-none-eabi/lib/thumb/v7e-m+fp/hard\librdimon_nano.a
END GROUP
START GROUP
LOAD c:/renesas/synergy/e2studio_v2022-04_ssp_v2.3.0/toolchains/gcc_arm/gcc-arm-none-eabi-10.3-2021.10/bin/../lib/gcc/arm-none-eabi/10.3.1/thumb/v7e-m+fp/hard\libgcc.a
LOAD c:/renesas/synergy/e2studio_v2022-04_ssp_v2.3.0/toolchains/gcc_arm/gcc-arm-none-eabi-10.3-2021.10/bin/../lib/gcc/arm-none-eabi/10.3.1/../../../../arm-none-eabi/lib/thumb/v7e-m+fp/hard\libc_nano.a
LOAD c:/renesas/synergy/e2studio_v2022-04_ssp_v2.3.0/toolchains/gcc_arm/gcc-arm-none-eabi-10.3-2021.10/bin/../lib/gcc/arm-none-eabi/10.3.1/../../../../arm-none-eabi/lib/thumb/v7e-m+fp/hard\librdimon_nano.a
END GROUP
LOAD c:/renesas/synergy/e2studio_v2022-04_ssp_v2.3.0/toolchains/gcc_arm/gcc-arm-none-eabi-10.3-2021.10/bin/../lib/gcc/arm-none-eabi/10.3.1/thumb/v7e-m+fp/hard/crtend.o
LOAD c:/renesas/synergy/e2studio_v2022-04_ssp_v2.3.0/toolchains/gcc_arm/gcc-arm-none-eabi-10.3-2021.10/bin/../lib/gcc/arm-none-eabi/10.3.1/thumb/v7e-m+fp/hard/crtn.o
START GROUP
LOAD c:/renesas/synergy/e2studio_v2022-04_ssp_v2.3.0/toolchains/gcc_arm/gcc-arm-none-eabi-10.3-2021.10/bin/../lib/gcc/arm-none-eabi/10.3.1/thumb/v7e-m+fp/hard\libgcc.a
LOAD c:/renesas/synergy/e2studio_v2022-04_ssp_v2.3.0/toolchains/gcc_arm/gcc-arm-none-eabi-10.3-2021.10/bin/../lib/gcc/arm-none-eabi/10.3.1/../../../../arm-none-eabi/lib/thumb/v7e-m+fp/hard\libc.a
LOAD c:/renesas/synergy/e2studio_v2022-04_ssp_v2.3.0/toolchains/gcc_arm/gcc-arm-none-eabi-10.3-2021.10/bin/../lib/gcc/arm-none-eabi/10.3.1/../../../../arm-none-eabi/lib/thumb/v7e-m+fp/hard\libm.a
LOAD c:/renesas/synergy/e2studio_v2022-04_ssp_v2.3.0/toolchains/gcc_arm/gcc-arm-none-eabi-10.3-2021.10/bin/../lib/gcc/arm-none-eabi/10.3.1/../../../../arm-none-eabi/lib/thumb/v7e-m+fp/hard\libnosys.a
END GROUP

.text           0x00000000     0x51dc
                0x00000000                __ROM_Start = .
 *(.vectors)
 .vectors       0x00000000       0x40 ./synergy/ssp/src/bsp/cmsis/Device/RENESAS/S7G2/Source/startup_S7G2.o
                0x00000000                __Vectors
 *(SORT_BY_NAME(.vector.*))
                0x00000040                __Vectors_End = .
                0x1ffe0250                __end__ = .
                0x00000400                . = (__ROM_Start + 0x400)
 *fill*         0x00000040      0x3c0 ff
 *(.rom_registers*)
 .rom_registers
                0x00000400       0x3c ./synergy/ssp/src/bsp/mcu/s7g2/bsp_rom_registers.o
                0x00000500                . = (__ROM_Start + 0x500)
 *fill*         0x0000043c       0xc4 ff
                0x00000500                __Vector_Info_Start = .
 *(SORT_BY_NAME(.vector_info.*))
                0x00000500                __Vector_Info_End = .
                0x00000500                __Lock_Lookup_Start = .
 *(SORT_BY_NAME(.hw_lock_lookup.*))
 .hw_lock_lookup.ADC_0U_0U
                0x00000500        0x4 ./synergy/ssp/src/bsp/mcu/s7g2/bsp_hw_locks.o
                0x00000500                g_lock_lookup_ADC_0U_0U
 .hw_lock_lookup.ADC_0U_1U
                0x00000504        0x4 ./synergy/ssp/src/bsp/mcu/s7g2/bsp_hw_locks.o
                0x00000504                g_lock_lookup_ADC_0U_1U
 .hw_lock_lookup.AGT_0U_0U
                0x00000508        0x4 ./synergy/ssp/src/bsp/mcu/s7g2/bsp_hw_locks.o
                0x00000508                g_lock_lookup_AGT_0U_0U
 .hw_lock_lookup.AGT_0U_1U
                0x0000050c        0x4 ./synergy/ssp/src/bsp/mcu/s7g2/bsp_hw_locks.o
                0x0000050c                g_lock_lookup_AGT_0U_1U
 .hw_lock_lookup.BSC_0U_1U
                0x00000510        0x4 ./synergy/ssp/src/bsp/mcu/s7g2/bsp_hw_locks.o
                0x00000510                g_lock_lookup_BSC_0U_1U
 .hw_lock_lookup.CAC_0U_0U
                0x00000514        0x4 ./synergy/ssp/src/bsp/mcu/s7g2/bsp_hw_locks.o
                0x00000514                g_lock_lookup_CAC_0U_0U
 .hw_lock_lookup.CAN_0U_0U
                0x00000518        0x4 ./synergy/ssp/src/bsp/mcu/s7g2/bsp_hw_locks.o
                0x00000518                g_lock_lookup_CAN_0U_0U
 .hw_lock_lookup.CAN_0U_1U
                0x0000051c        0x4 ./synergy/ssp/src/bsp/mcu/s7g2/bsp_hw_locks.o
                0x0000051c                g_lock_lookup_CAN_0U_1U
 .hw_lock_lookup.COMP_HS_0U_0U
                0x00000520        0x4 ./synergy/ssp/src/bsp/mcu/s7g2/bsp_hw_locks.o
                0x00000520                g_lock_lookup_COMP_HS_0U_0U
 .hw_lock_lookup.COMP_HS_0U_1U
                0x00000524        0x4 ./synergy/ssp/src/bsp/mcu/s7g2/bsp_hw_locks.o
                0x00000524                g_lock_lookup_COMP_HS_0U_1U
 .hw_lock_lookup.COMP_HS_0U_2U
                0x00000528        0x4 ./synergy/ssp/src/bsp/mcu/s7g2/bsp_hw_locks.o
                0x00000528                g_lock_lookup_COMP_HS_0U_2U
 .hw_lock_lookup.COMP_HS_0U_3U
                0x0000052c        0x4 ./synergy/ssp/src/bsp/mcu/s7g2/bsp_hw_locks.o
                0x0000052c                g_lock_lookup_COMP_HS_0U_3U
 .hw_lock_lookup.COMP_HS_0U_4U
                0x00000530        0x4 ./synergy/ssp/src/bsp/mcu/s7g2/bsp_hw_locks.o
                0x00000530                g_lock_lookup_COMP_HS_0U_4U
 .hw_lock_lookup.COMP_HS_0U_5U
                0x00000534        0x4 ./synergy/ssp/src/bsp/mcu/s7g2/bsp_hw_locks.o
                0x00000534                g_lock_lookup_COMP_HS_0U_5U
 .hw_lock_lookup.CRC_0U_0U
                0x00000538        0x4 ./synergy/ssp/src/bsp/mcu/s7g2/bsp_hw_locks.o
                0x00000538                g_lock_lookup_CRC_0U_0U
 .hw_lock_lookup.CTSU_0U_0U
                0x0000053c        0x4 ./synergy/ssp/src/bsp/mcu/s7g2/bsp_hw_locks.o
                0x0000053c                g_lock_lookup_CTSU_0U_0U
 .hw_lock_lookup.DAAD_0U_0U
                0x00000540        0x4 ./synergy/ssp/src/bsp/mcu/s7g2/bsp_hw_locks.o
                0x00000540                g_lock_lookup_DAAD_0U_0U
 .hw_lock_lookup.DAC_0U_0U
                0x00000544        0x4 ./synergy/ssp/src/bsp/mcu/s7g2/bsp_hw_locks.o
                0x00000544                g_lock_lookup_DAC_0U_0U
 .hw_lock_lookup.DAC_0U_1U
                0x00000548        0x4 ./synergy/ssp/src/bsp/mcu/s7g2/bsp_hw_locks.o
                0x00000548                g_lock_lookup_DAC_0U_1U
 .hw_lock_lookup.DMAC_0U_0U
                0x0000054c        0x4 ./synergy/ssp/src/bsp/mcu/s7g2/bsp_hw_locks.o
                0x0000054c                g_lock_lookup_DMAC_0U_0U
 .hw_lock_lookup.DMAC_0U_1U
                0x00000550        0x4 ./synergy/ssp/src/bsp/mcu/s7g2/bsp_hw_locks.o
                0x00000550                g_lock_lookup_DMAC_0U_1U
 .hw_lock_lookup.DMAC_0U_2U
                0x00000554        0x4 ./synergy/ssp/src/bsp/mcu/s7g2/bsp_hw_locks.o
                0x00000554                g_lock_lookup_DMAC_0U_2U
 .hw_lock_lookup.DMAC_0U_3U
                0x00000558        0x4 ./synergy/ssp/src/bsp/mcu/s7g2/bsp_hw_locks.o
                0x00000558                g_lock_lookup_DMAC_0U_3U
 .hw_lock_lookup.DMAC_0U_4U
                0x0000055c        0x4 ./synergy/ssp/src/bsp/mcu/s7g2/bsp_hw_locks.o
                0x0000055c                g_lock_lookup_DMAC_0U_4U
 .hw_lock_lookup.DMAC_0U_5U
                0x00000560        0x4 ./synergy/ssp/src/bsp/mcu/s7g2/bsp_hw_locks.o
                0x00000560                g_lock_lookup_DMAC_0U_5U
 .hw_lock_lookup.DMAC_0U_6U
                0x00000564        0x4 ./synergy/ssp/src/bsp/mcu/s7g2/bsp_hw_locks.o
                0x00000564                g_lock_lookup_DMAC_0U_6U
 .hw_lock_lookup.DMAC_0U_7U
                0x00000568        0x4 ./synergy/ssp/src/bsp/mcu/s7g2/bsp_hw_locks.o
                0x00000568                g_lock_lookup_DMAC_0U_7U
 .hw_lock_lookup.DOC_0U_0U
                0x0000056c        0x4 ./synergy/ssp/src/bsp/mcu/s7g2/bsp_hw_locks.o
                0x0000056c                g_lock_lookup_DOC_0U_0U
 .hw_lock_lookup.DRW_0U_0U
                0x00000570        0x4 ./synergy/ssp/src/bsp/mcu/s7g2/bsp_hw_locks.o
                0x00000570                g_lock_lookup_DRW_0U_0U
 .hw_lock_lookup.DTC_0U_0U
                0x00000574        0x4 ./synergy/ssp/src/bsp/mcu/s7g2/bsp_hw_locks.o
                0x00000574                g_lock_lookup_DTC_0U_0U
 .hw_lock_lookup.ELC_0U_0U
                0x00000578        0x4 ./synergy/ssp/src/bsp/mcu/s7g2/bsp_hw_locks.o
                0x00000578                g_lock_lookup_ELC_0U_0U
 .hw_lock_lookup.EPTPC_0U_0U
                0x0000057c        0x4 ./synergy/ssp/src/bsp/mcu/s7g2/bsp_hw_locks.o
                0x0000057c                g_lock_lookup_EPTPC_0U_0U
 .hw_lock_lookup.ETHER_0U_0U
                0x00000580        0x4 ./synergy/ssp/src/bsp/mcu/s7g2/bsp_hw_locks.o
                0x00000580                g_lock_lookup_ETHER_0U_0U
 .hw_lock_lookup.ETHER_0U_1U
                0x00000584        0x4 ./synergy/ssp/src/bsp/mcu/s7g2/bsp_hw_locks.o
                0x00000584                g_lock_lookup_ETHER_0U_1U
 .hw_lock_lookup.FCU_0U_0U
                0x00000588        0x4 ./synergy/ssp/src/bsp/mcu/s7g2/bsp_hw_locks.o
                0x00000588                g_lock_lookup_FCU_0U_0U
 .hw_lock_lookup.GLCDC_0U_0U
                0x0000058c        0x4 ./synergy/ssp/src/bsp/mcu/s7g2/bsp_hw_locks.o
                0x0000058c                g_lock_lookup_GLCDC_0U_0U
 .hw_lock_lookup.GPT_0U_0U
                0x00000590        0x4 ./synergy/ssp/src/bsp/mcu/s7g2/bsp_hw_locks.o
                0x00000590                g_lock_lookup_GPT_0U_0U
 .hw_lock_lookup.GPT_0U_10U
                0x00000594        0x4 ./synergy/ssp/src/bsp/mcu/s7g2/bsp_hw_locks.o
                0x00000594                g_lock_lookup_GPT_0U_10U
 .hw_lock_lookup.GPT_0U_11U
                0x00000598        0x4 ./synergy/ssp/src/bsp/mcu/s7g2/bsp_hw_locks.o
                0x00000598                g_lock_lookup_GPT_0U_11U
 .hw_lock_lookup.GPT_0U_12U
                0x0000059c        0x4 ./synergy/ssp/src/bsp/mcu/s7g2/bsp_hw_locks.o
                0x0000059c                g_lock_lookup_GPT_0U_12U
 .hw_lock_lookup.GPT_0U_13U
                0x000005a0        0x4 ./synergy/ssp/src/bsp/mcu/s7g2/bsp_hw_locks.o
                0x000005a0                g_lock_lookup_GPT_0U_13U
 .hw_lock_lookup.GPT_0U_1U
                0x000005a4        0x4 ./synergy/ssp/src/bsp/mcu/s7g2/bsp_hw_locks.o
                0x000005a4                g_lock_lookup_GPT_0U_1U
 .hw_lock_lookup.GPT_0U_2U
                0x000005a8        0x4 ./synergy/ssp/src/bsp/mcu/s7g2/bsp_hw_locks.o
                0x000005a8                g_lock_lookup_GPT_0U_2U
 .hw_lock_lookup.GPT_0U_3U
                0x000005ac        0x4 ./synergy/ssp/src/bsp/mcu/s7g2/bsp_hw_locks.o
                0x000005ac                g_lock_lookup_GPT_0U_3U
 .hw_lock_lookup.GPT_0U_4U
                0x000005b0        0x4 ./synergy/ssp/src/bsp/mcu/s7g2/bsp_hw_locks.o
                0x000005b0                g_lock_lookup_GPT_0U_4U
 .hw_lock_lookup.GPT_0U_5U
                0x000005b4        0x4 ./synergy/ssp/src/bsp/mcu/s7g2/bsp_hw_locks.o
                0x000005b4                g_lock_lookup_GPT_0U_5U
 .hw_lock_lookup.GPT_0U_6U
                0x000005b8        0x4 ./synergy/ssp/src/bsp/mcu/s7g2/bsp_hw_locks.o
                0x000005b8                g_lock_lookup_GPT_0U_6U
 .hw_lock_lookup.GPT_0U_7U
                0x000005bc        0x4 ./synergy/ssp/src/bsp/mcu/s7g2/bsp_hw_locks.o
                0x000005bc                g_lock_lookup_GPT_0U_7U
 .hw_lock_lookup.GPT_0U_8U
                0x000005c0        0x4 ./synergy/ssp/src/bsp/mcu/s7g2/bsp_hw_locks.o
                0x000005c0                g_lock_lookup_GPT_0U_8U
 .hw_lock_lookup.GPT_0U_9U
                0x000005c4        0x4 ./synergy/ssp/src/bsp/mcu/s7g2/bsp_hw_locks.o
                0x000005c4                g_lock_lookup_GPT_0U_9U
 .hw_lock_lookup.ICU_0U_0U
                0x000005c8        0x4 ./synergy/ssp/src/bsp/mcu/s7g2/bsp_hw_locks.o
                0x000005c8                g_lock_lookup_ICU_0U_0U
 .hw_lock_lookup.ICU_0U_10U
                0x000005cc        0x4 ./synergy/ssp/src/bsp/mcu/s7g2/bsp_hw_locks.o
                0x000005cc                g_lock_lookup_ICU_0U_10U
 .hw_lock_lookup.ICU_0U_11U
                0x000005d0        0x4 ./synergy/ssp/src/bsp/mcu/s7g2/bsp_hw_locks.o
                0x000005d0                g_lock_lookup_ICU_0U_11U
 .hw_lock_lookup.ICU_0U_12U
                0x000005d4        0x4 ./synergy/ssp/src/bsp/mcu/s7g2/bsp_hw_locks.o
                0x000005d4                g_lock_lookup_ICU_0U_12U
 .hw_lock_lookup.ICU_0U_13U
                0x000005d8        0x4 ./synergy/ssp/src/bsp/mcu/s7g2/bsp_hw_locks.o
                0x000005d8                g_lock_lookup_ICU_0U_13U
 .hw_lock_lookup.ICU_0U_14U
                0x000005dc        0x4 ./synergy/ssp/src/bsp/mcu/s7g2/bsp_hw_locks.o
                0x000005dc                g_lock_lookup_ICU_0U_14U
 .hw_lock_lookup.ICU_0U_15U
                0x000005e0        0x4 ./synergy/ssp/src/bsp/mcu/s7g2/bsp_hw_locks.o
                0x000005e0                g_lock_lookup_ICU_0U_15U
 .hw_lock_lookup.ICU_0U_1U
                0x000005e4        0x4 ./synergy/ssp/src/bsp/mcu/s7g2/bsp_hw_locks.o
                0x000005e4                g_lock_lookup_ICU_0U_1U
 .hw_lock_lookup.ICU_0U_2U
                0x000005e8        0x4 ./synergy/ssp/src/bsp/mcu/s7g2/bsp_hw_locks.o
                0x000005e8                g_lock_lookup_ICU_0U_2U
 .hw_lock_lookup.ICU_0U_3U
                0x000005ec        0x4 ./synergy/ssp/src/bsp/mcu/s7g2/bsp_hw_locks.o
                0x000005ec                g_lock_lookup_ICU_0U_3U
 .hw_lock_lookup.ICU_0U_4U
                0x000005f0        0x4 ./synergy/ssp/src/bsp/mcu/s7g2/bsp_hw_locks.o
                0x000005f0                g_lock_lookup_ICU_0U_4U
 .hw_lock_lookup.ICU_0U_5U
                0x000005f4        0x4 ./synergy/ssp/src/bsp/mcu/s7g2/bsp_hw_locks.o
                0x000005f4                g_lock_lookup_ICU_0U_5U
 .hw_lock_lookup.ICU_0U_6U
                0x000005f8        0x4 ./synergy/ssp/src/bsp/mcu/s7g2/bsp_hw_locks.o
                0x000005f8                g_lock_lookup_ICU_0U_6U
 .hw_lock_lookup.ICU_0U_7U
                0x000005fc        0x4 ./synergy/ssp/src/bsp/mcu/s7g2/bsp_hw_locks.o
                0x000005fc                g_lock_lookup_ICU_0U_7U
 .hw_lock_lookup.ICU_0U_8U
                0x00000600        0x4 ./synergy/ssp/src/bsp/mcu/s7g2/bsp_hw_locks.o
                0x00000600                g_lock_lookup_ICU_0U_8U
 .hw_lock_lookup.ICU_0U_9U
                0x00000604        0x4 ./synergy/ssp/src/bsp/mcu/s7g2/bsp_hw_locks.o
                0x00000604                g_lock_lookup_ICU_0U_9U
 .hw_lock_lookup.IIC_0U_0U
                0x00000608        0x4 ./synergy/ssp/src/bsp/mcu/s7g2/bsp_hw_locks.o
                0x00000608                g_lock_lookup_IIC_0U_0U
 .hw_lock_lookup.IIC_0U_1U
                0x0000060c        0x4 ./synergy/ssp/src/bsp/mcu/s7g2/bsp_hw_locks.o
                0x0000060c                g_lock_lookup_IIC_0U_1U
 .hw_lock_lookup.IIC_0U_2U
                0x00000610        0x4 ./synergy/ssp/src/bsp/mcu/s7g2/bsp_hw_locks.o
                0x00000610                g_lock_lookup_IIC_0U_2U
 .hw_lock_lookup.IRDA_0U_0U
                0x00000614        0x4 ./synergy/ssp/src/bsp/mcu/s7g2/bsp_hw_locks.o
                0x00000614                g_lock_lookup_IRDA_0U_0U
 .hw_lock_lookup.IWDT_0U_0U
                0x00000618        0x4 ./synergy/ssp/src/bsp/mcu/s7g2/bsp_hw_locks.o
                0x00000618                g_lock_lookup_IWDT_0U_0U
 .hw_lock_lookup.JPEG_0U_0U
                0x0000061c        0x4 ./synergy/ssp/src/bsp/mcu/s7g2/bsp_hw_locks.o
                0x0000061c                g_lock_lookup_JPEG_0U_0U
 .hw_lock_lookup.KEY_0U_0U
                0x00000620        0x4 ./synergy/ssp/src/bsp/mcu/s7g2/bsp_hw_locks.o
                0x00000620                g_lock_lookup_KEY_0U_0U
 .hw_lock_lookup.LPM_1U_0U
                0x00000624        0x4 ./synergy/ssp/src/bsp/mcu/s7g2/bsp_hw_locks.o
                0x00000624                g_lock_lookup_LPM_1U_0U
 .hw_lock_lookup.LVD_0U_0U
                0x00000628        0x4 ./synergy/ssp/src/bsp/mcu/s7g2/bsp_hw_locks.o
                0x00000628                g_lock_lookup_LVD_0U_0U
 .hw_lock_lookup.LVD_0U_1U
                0x0000062c        0x4 ./synergy/ssp/src/bsp/mcu/s7g2/bsp_hw_locks.o
                0x0000062c                g_lock_lookup_LVD_0U_1U
 .hw_lock_lookup.MMF_0U_0U
                0x00000630        0x4 ./synergy/ssp/src/bsp/mcu/s7g2/bsp_hw_locks.o
                0x00000630                g_lock_lookup_MMF_0U_0U
 .hw_lock_lookup.MPU_0U_0U
                0x00000634        0x4 ./synergy/ssp/src/bsp/mcu/s7g2/bsp_hw_locks.o
                0x00000634                g_lock_lookup_MPU_0U_0U
 .hw_lock_lookup.OPS_0U_0U
                0x00000638        0x4 ./synergy/ssp/src/bsp/mcu/s7g2/bsp_hw_locks.o
                0x00000638                g_lock_lookup_OPS_0U_0U
 .hw_lock_lookup.PDC_0U_0U
                0x0000063c        0x4 ./synergy/ssp/src/bsp/mcu/s7g2/bsp_hw_locks.o
                0x0000063c                g_lock_lookup_PDC_0U_0U
 .hw_lock_lookup.POEG_0U_0U
                0x00000640        0x4 ./synergy/ssp/src/bsp/mcu/s7g2/bsp_hw_locks.o
                0x00000640                g_lock_lookup_POEG_0U_0U
 .hw_lock_lookup.POEG_0U_1U
                0x00000644        0x4 ./synergy/ssp/src/bsp/mcu/s7g2/bsp_hw_locks.o
                0x00000644                g_lock_lookup_POEG_0U_1U
 .hw_lock_lookup.POEG_0U_2U
                0x00000648        0x4 ./synergy/ssp/src/bsp/mcu/s7g2/bsp_hw_locks.o
                0x00000648                g_lock_lookup_POEG_0U_2U
 .hw_lock_lookup.POEG_0U_3U
                0x0000064c        0x4 ./synergy/ssp/src/bsp/mcu/s7g2/bsp_hw_locks.o
                0x0000064c                g_lock_lookup_POEG_0U_3U
 .hw_lock_lookup.QSPI_0U_0U
                0x00000650        0x4 ./synergy/ssp/src/bsp/mcu/s7g2/bsp_hw_locks.o
                0x00000650                g_lock_lookup_QSPI_0U_0U
 .hw_lock_lookup.RTC_0U_0U
                0x00000654        0x4 ./synergy/ssp/src/bsp/mcu/s7g2/bsp_hw_locks.o
                0x00000654                g_lock_lookup_RTC_0U_0U
 .hw_lock_lookup.SCE_0U_0U
                0x00000658        0x4 ./synergy/ssp/src/bsp/mcu/s7g2/bsp_hw_locks.o
                0x00000658                g_lock_lookup_SCE_0U_0U
 .hw_lock_lookup.SCI_0U_0U
                0x0000065c        0x4 ./synergy/ssp/src/bsp/mcu/s7g2/bsp_hw_locks.o
                0x0000065c                g_lock_lookup_SCI_0U_0U
 .hw_lock_lookup.SCI_0U_1U
                0x00000660        0x4 ./synergy/ssp/src/bsp/mcu/s7g2/bsp_hw_locks.o
                0x00000660                g_lock_lookup_SCI_0U_1U
 .hw_lock_lookup.SCI_0U_2U
                0x00000664        0x4 ./synergy/ssp/src/bsp/mcu/s7g2/bsp_hw_locks.o
                0x00000664                g_lock_lookup_SCI_0U_2U
 .hw_lock_lookup.SCI_0U_3U
                0x00000668        0x4 ./synergy/ssp/src/bsp/mcu/s7g2/bsp_hw_locks.o
                0x00000668                g_lock_lookup_SCI_0U_3U
 .hw_lock_lookup.SCI_0U_4U
                0x0000066c        0x4 ./synergy/ssp/src/bsp/mcu/s7g2/bsp_hw_locks.o
                0x0000066c                g_lock_lookup_SCI_0U_4U
 .hw_lock_lookup.SCI_0U_5U
                0x00000670        0x4 ./synergy/ssp/src/bsp/mcu/s7g2/bsp_hw_locks.o
                0x00000670                g_lock_lookup_SCI_0U_5U
 .hw_lock_lookup.SCI_0U_6U
                0x00000674        0x4 ./synergy/ssp/src/bsp/mcu/s7g2/bsp_hw_locks.o
                0x00000674                g_lock_lookup_SCI_0U_6U
 .hw_lock_lookup.SCI_0U_7U
                0x00000678        0x4 ./synergy/ssp/src/bsp/mcu/s7g2/bsp_hw_locks.o
                0x00000678                g_lock_lookup_SCI_0U_7U
 .hw_lock_lookup.SCI_0U_8U
                0x0000067c        0x4 ./synergy/ssp/src/bsp/mcu/s7g2/bsp_hw_locks.o
                0x0000067c                g_lock_lookup_SCI_0U_8U
 .hw_lock_lookup.SCI_0U_9U
                0x00000680        0x4 ./synergy/ssp/src/bsp/mcu/s7g2/bsp_hw_locks.o
                0x00000680                g_lock_lookup_SCI_0U_9U
 .hw_lock_lookup.SDHIMMC_0U_0U
                0x00000684        0x4 ./synergy/ssp/src/bsp/mcu/s7g2/bsp_hw_locks.o
                0x00000684                g_lock_lookup_SDHIMMC_0U_0U
 .hw_lock_lookup.SDHIMMC_0U_1U
                0x00000688        0x4 ./synergy/ssp/src/bsp/mcu/s7g2/bsp_hw_locks.o
                0x00000688                g_lock_lookup_SDHIMMC_0U_1U
 .hw_lock_lookup.SPI_0U_0U
                0x0000068c        0x4 ./synergy/ssp/src/bsp/mcu/s7g2/bsp_hw_locks.o
                0x0000068c                g_lock_lookup_SPI_0U_0U
 .hw_lock_lookup.SPI_0U_1U
                0x00000690        0x4 ./synergy/ssp/src/bsp/mcu/s7g2/bsp_hw_locks.o
                0x00000690                g_lock_lookup_SPI_0U_1U
 .hw_lock_lookup.SRC_0U_0U
                0x00000694        0x4 ./synergy/ssp/src/bsp/mcu/s7g2/bsp_hw_locks.o
                0x00000694                g_lock_lookup_SRC_0U_0U
 .hw_lock_lookup.SSI_0U_0U
                0x00000698        0x4 ./synergy/ssp/src/bsp/mcu/s7g2/bsp_hw_locks.o
                0x00000698                g_lock_lookup_SSI_0U_0U
 .hw_lock_lookup.SSI_0U_1U
                0x0000069c        0x4 ./synergy/ssp/src/bsp/mcu/s7g2/bsp_hw_locks.o
                0x0000069c                g_lock_lookup_SSI_0U_1U
 .hw_lock_lookup.TSN_0U_0U
                0x000006a0        0x4 ./synergy/ssp/src/bsp/mcu/s7g2/bsp_hw_locks.o
                0x000006a0                g_lock_lookup_TSN_0U_0U
 .hw_lock_lookup.USB_0U_0U
                0x000006a4        0x4 ./synergy/ssp/src/bsp/mcu/s7g2/bsp_hw_locks.o
                0x000006a4                g_lock_lookup_USB_0U_0U
 .hw_lock_lookup.USB_1U_0U
                0x000006a8        0x4 ./synergy/ssp/src/bsp/mcu/s7g2/bsp_hw_locks.o
                0x000006a8                g_lock_lookup_USB_1U_0U
 .hw_lock_lookup.WDT_0U_0U
                0x000006ac        0x4 ./synergy/ssp/src/bsp/mcu/s7g2/bsp_hw_locks.o
                0x000006ac                g_lock_lookup_WDT_0U_0U
                0x000006b0                __Lock_Lookup_End = .
 *(.text*)
 .text          0x000006b0       0x40 c:/renesas/synergy/e2studio_v2022-04_ssp_v2.3.0/toolchains/gcc_arm/gcc-arm-none-eabi-10.3-2021.10/bin/../lib/gcc/arm-none-eabi/10.3.1/thumb/v7e-m+fp/hard/crtbegin.o
 .text.R_IOPORT_PortRead
                0x000006f0       0x34 ./synergy/ssp/src/driver/r_ioport/r_ioport.o
                0x000006f0                R_IOPORT_PortRead
 .text.R_IOPORT_PortWrite
                0x00000724       0x40 ./synergy/ssp/src/driver/r_ioport/r_ioport.o
                0x00000724                R_IOPORT_PortWrite
 .text.R_IOPORT_PortDirectionSet
                0x00000764       0x50 ./synergy/ssp/src/driver/r_ioport/r_ioport.o
                0x00000764                R_IOPORT_PortDirectionSet
 .text.R_IOPORT_PortEventInputRead
                0x000007b4       0x34 ./synergy/ssp/src/driver/r_ioport/r_ioport.o
                0x000007b4                R_IOPORT_PortEventInputRead
 .text.R_IOPORT_PortEventOutputWrite
                0x000007e8       0x3c ./synergy/ssp/src/driver/r_ioport/r_ioport.o
                0x000007e8                R_IOPORT_PortEventOutputWrite
 .text.R_IOPORT_VersionGet
                0x00000824       0x10 ./synergy/ssp/src/driver/r_ioport/r_ioport.o
                0x00000824                R_IOPORT_VersionGet
 .text.bsp_vbatt_init
                0x00000834       0xac ./synergy/ssp/src/driver/r_ioport/r_ioport.o
 .text.R_IOPORT_PinDirectionSet
                0x000008e0       0xd0 ./synergy/ssp/src/driver/r_ioport/r_ioport.o
                0x000008e0                R_IOPORT_PinDirectionSet
 .text.R_IOPORT_EthernetModeCfg
                0x000009b0       0x50 ./synergy/ssp/src/driver/r_ioport/r_ioport.o
                0x000009b0                R_IOPORT_EthernetModeCfg
 .text.R_IOPORT_PinsCfg
                0x00000a00       0xd4 ./synergy/ssp/src/driver/r_ioport/r_ioport.o
                0x00000a00                R_IOPORT_PinsCfg
 .text.R_IOPORT_Init
                0x00000ad4       0x74 ./synergy/ssp/src/driver/r_ioport/r_ioport.o
                0x00000ad4                R_IOPORT_Init
 .text.R_IOPORT_PinRead
                0x00000b48       0x50 ./synergy/ssp/src/driver/r_ioport/r_ioport.o
                0x00000b48                R_IOPORT_PinRead
 .text.R_IOPORT_PinEventInputRead
                0x00000b98       0x5c ./synergy/ssp/src/driver/r_ioport/r_ioport.o
                0x00000b98                R_IOPORT_PinEventInputRead
 .text.R_IOPORT_PinEventOutputWrite
                0x00000bf4       0x64 ./synergy/ssp/src/driver/r_ioport/r_ioport.o
                0x00000bf4                R_IOPORT_PinEventOutputWrite
 .text.R_IOPORT_PinWrite
                0x00000c58       0x54 ./synergy/ssp/src/driver/r_ioport/r_ioport.o
                0x00000c58                R_IOPORT_PinWrite
 .text.R_IOPORT_PinCfg
                0x00000cac       0xc8 ./synergy/ssp/src/driver/r_ioport/r_ioport.o
                0x00000cac                R_IOPORT_PinCfg
 .text.R_ELC_LinkSet
                0x00000d74       0x14 ./synergy/ssp/src/driver/r_elc/r_elc.o
                0x00000d74                R_ELC_LinkSet
 .text.R_ELC_LinkBreak
                0x00000d88       0x14 ./synergy/ssp/src/driver/r_elc/r_elc.o
                0x00000d88                R_ELC_LinkBreak
 .text.R_ELC_Enable
                0x00000d9c       0x14 ./synergy/ssp/src/driver/r_elc/r_elc.o
                0x00000d9c                R_ELC_Enable
 .text.R_ELC_Disable
                0x00000db0       0x14 ./synergy/ssp/src/driver/r_elc/r_elc.o
                0x00000db0                R_ELC_Disable
 .text.R_ELC_VersionGet
                0x00000dc4       0x10 ./synergy/ssp/src/driver/r_elc/r_elc.o
                0x00000dc4                R_ELC_VersionGet
 .text.R_ELC_Init
                0x00000dd4       0x7c ./synergy/ssp/src/driver/r_elc/r_elc.o
                0x00000dd4                R_ELC_Init
 .text.R_ELC_SoftwareEventGenerate
                0x00000e50       0x30 ./synergy/ssp/src/driver/r_elc/r_elc.o
                0x00000e50                R_ELC_SoftwareEventGenerate
 .text.R_CGC_LCDClockCfg
                0x00000e80        0x4 ./synergy/ssp/src/driver/r_cgc/r_cgc.o
                0x00000e80                R_CGC_LCDClockCfg
 .text.R_CGC_LCDClockEnable
                0x00000e84        0x4 ./synergy/ssp/src/driver/r_cgc/r_cgc.o
                0x00000e84                R_CGC_LCDClockEnable
 .text.R_CGC_VersionGet
                0x00000e88       0x10 ./synergy/ssp/src/driver/r_cgc/r_cgc.o
                0x00000e88                R_CGC_VersionGet
 .text.r_cgc_init_pllfreq
                0x00000e98       0xd8 ./synergy/ssp/src/driver/r_cgc/r_cgc.o
 .text.R_CGC_SystemClockFreqGet
                0x00000f70       0xb0 ./synergy/ssp/src/driver/r_cgc/r_cgc.o
                0x00000f70                R_CGC_SystemClockFreqGet
 .text.R_CGC_BusClockOutCfg
                0x00001020       0x28 ./synergy/ssp/src/driver/r_cgc/r_cgc.o
                0x00001020                R_CGC_BusClockOutCfg
 .text.R_CGC_BusClockOutEnable
                0x00001048       0x28 ./synergy/ssp/src/driver/r_cgc/r_cgc.o
                0x00001048                R_CGC_BusClockOutEnable
 .text.R_CGC_BusClockOutDisable
                0x00001070       0x28 ./synergy/ssp/src/driver/r_cgc/r_cgc.o
                0x00001070                R_CGC_BusClockOutDisable
 .text.R_CGC_ClockOutEnable
                0x00001098       0x28 ./synergy/ssp/src/driver/r_cgc/r_cgc.o
                0x00001098                R_CGC_ClockOutEnable
 .text.R_CGC_ClockOutDisable
                0x000010c0       0x28 ./synergy/ssp/src/driver/r_cgc/r_cgc.o
                0x000010c0                R_CGC_ClockOutDisable
 .text.R_CGC_SDRAMClockOutEnable
                0x000010e8       0x28 ./synergy/ssp/src/driver/r_cgc/r_cgc.o
                0x000010e8                R_CGC_SDRAMClockOutEnable
 .text.R_CGC_SDRAMClockOutDisable
                0x00001110       0x28 ./synergy/ssp/src/driver/r_cgc/r_cgc.o
                0x00001110                R_CGC_SDRAMClockOutDisable
 .text.R_CGC_USBClockCfg
                0x00001138       0x28 ./synergy/ssp/src/driver/r_cgc/r_cgc.o
                0x00001138                R_CGC_USBClockCfg
 .text.R_CGC_SystickUpdate
                0x00001160       0x88 ./synergy/ssp/src/driver/r_cgc/r_cgc.o
                0x00001160                R_CGC_SystickUpdate
 .text.R_CGC_ClockOutCfg
                0x000011e8       0x5c ./synergy/ssp/src/driver/r_cgc/r_cgc.o
                0x000011e8                R_CGC_ClockOutCfg
 .text.r_cgc_system_dividers_set.isra.0
                0x00001244       0x5c ./synergy/ssp/src/driver/r_cgc/r_cgc.o
 .text.R_CGC_OscStopStatusClear
                0x000012a0       0x64 ./synergy/ssp/src/driver/r_cgc/r_cgc.o
                0x000012a0                R_CGC_OscStopStatusClear
 .text.R_CGC_SDADCClockCfg
                0x00001304        0x4 ./synergy/ssp/src/driver/r_cgc/r_cgc.o
                0x00001304                R_CGC_SDADCClockCfg
 .text.R_CGC_SDADCClockEnable
                0x00001308        0x4 ./synergy/ssp/src/driver/r_cgc/r_cgc.o
                0x00001308                R_CGC_SDADCClockEnable
 .text.R_CGC_SDADCClockDisable
                0x0000130c        0x4 ./synergy/ssp/src/driver/r_cgc/r_cgc.o
                0x0000130c                R_CGC_SDADCClockDisable
 .text.R_CGC_LCDClockDisable
                0x00001310        0x4 ./synergy/ssp/src/driver/r_cgc/r_cgc.o
                0x00001310                R_CGC_LCDClockDisable
 .text.R_CGC_SystemClockGet
                0x00001314       0x5c ./synergy/ssp/src/driver/r_cgc/r_cgc.o
                0x00001314                R_CGC_SystemClockGet
 .text.R_CGC_OscStopDetect
                0x00001370      0x108 ./synergy/ssp/src/driver/r_cgc/r_cgc.o
                0x00001370                R_CGC_OscStopDetect
 .text.R_CGC_Init
                0x00001478      0x11c ./synergy/ssp/src/driver/r_cgc/r_cgc.o
                0x00001478                R_CGC_Init
 .text.r_cgc_clock_run_state_get
                0x00001594       0x68 ./synergy/ssp/src/driver/r_cgc/r_cgc.o
                0x00001594                r_cgc_clock_run_state_get
 .text.R_CGC_ClockStop
                0x000015fc      0x160 ./synergy/ssp/src/driver/r_cgc/r_cgc.o
                0x000015fc                R_CGC_ClockStop
 .text.R_CGC_ClockCheck
                0x0000175c       0x8c ./synergy/ssp/src/driver/r_cgc/r_cgc.o
                0x0000175c                R_CGC_ClockCheck
 .text.r_cgc_operating_hw_modeset
                0x000017e8      0x100 ./synergy/ssp/src/driver/r_cgc/r_cgc.o
                0x000017e8                r_cgc_operating_hw_modeset
 .text.r_cgc_operating_mode_set
                0x000018e8       0x50 ./synergy/ssp/src/driver/r_cgc/r_cgc.o
 .text.R_CGC_SystemClockSet
                0x00001938      0x1dc ./synergy/ssp/src/driver/r_cgc/r_cgc.o
                0x00001938                R_CGC_SystemClockSet
 .text.R_CGC_ClockStart.part.0
                0x00001b14      0x3e4 ./synergy/ssp/src/driver/r_cgc/r_cgc.o
 .text.R_CGC_ClockStart
                0x00001ef8       0x70 ./synergy/ssp/src/driver/r_cgc/r_cgc.o
                0x00001ef8                R_CGC_ClockStart
 .text.r_cgc_clock_start_stop
                0x00001f68       0xc8 ./synergy/ssp/src/driver/r_cgc/r_cgc.o
 .text.R_CGC_ClocksCfg
                0x00002030      0x16c ./synergy/ssp/src/driver/r_cgc/r_cgc.o
                0x00002030                R_CGC_ClocksCfg
 .text.R_BSP_CacheOff
                0x0000219c       0x28 ./synergy/ssp/src/bsp/mcu/s7g2/bsp_cache.o
                0x0000219c                R_BSP_CacheOff
 .text.R_BSP_CacheSet
                0x000021c4       0x48 ./synergy/ssp/src/bsp/mcu/s7g2/bsp_cache.o
                0x000021c4                R_BSP_CacheSet
 .text.bsp_clock_init
                0x0000220c       0x9c ./synergy/ssp/src/bsp/mcu/s7g2/bsp_clocks.o
                0x0000220c                bsp_clock_init
 .text.bsp_cpu_clock_get
                0x000022a8       0x20 ./synergy/ssp/src/bsp/mcu/s7g2/bsp_clocks.o
                0x000022a8                bsp_cpu_clock_get
 .text.bsp_clock_set_callback
                0x000022c8      0x144 ./synergy/ssp/src/bsp/mcu/s7g2/bsp_clocks.o
                0x000022c8                bsp_clock_set_callback
 .text.R_BSP_FeatureIoportGet
                0x0000240c       0x10 ./synergy/ssp/src/bsp/mcu/s7g2/bsp_feature.o
                0x0000240c                R_BSP_FeatureIoportGet
 .text.R_BSP_FeatureCgcGet
                0x0000241c        0xc ./synergy/ssp/src/bsp/mcu/s7g2/bsp_feature.o
                0x0000241c                R_BSP_FeatureCgcGet
 .text.bsp_group_interrupt_open
                0x00002428       0x10 ./synergy/ssp/src/bsp/mcu/s7g2/bsp_group_irq.o
                0x00002428                bsp_group_interrupt_open
 .text.R_BSP_GroupIrqWrite
                0x00002438       0x10 ./synergy/ssp/src/bsp/mcu/s7g2/bsp_group_irq.o
                0x00002438                R_BSP_GroupIrqWrite
 .text.NMI_Handler
                0x00002448      0x1c8 ./synergy/ssp/src/bsp/mcu/s7g2/bsp_group_irq.o
                0x00002448                NMI_Handler
 .text.R_BSP_ModuleStart
                0x00002610       0x88 ./synergy/ssp/src/bsp/mcu/s7g2/bsp_module_stop.o
                0x00002610                R_BSP_ModuleStart
 .text.R_BSP_LedsGet
                0x00002698       0x24 ./synergy/ssp/src/bsp/mcu/all/bsp_common_leds.o
                0x00002698                R_BSP_LedsGet
 .text.software_delay_loop
                0x000026bc        0xc ./synergy/ssp/src/bsp/mcu/all/bsp_delay.o
 .text.R_BSP_SoftwareDelay
                0x000026c8       0x60 ./synergy/ssp/src/bsp/mcu/all/bsp_delay.o
                0x000026c8                R_BSP_SoftwareDelay
 .text.bsp_irq_cfg
                0x00002728       0x40 ./synergy/ssp/src/bsp/mcu/all/bsp_irq.o
                0x00002728                bsp_irq_cfg
 .text.bsp_init_hardware_locks
                0x00002768       0x60 ./synergy/ssp/src/bsp/mcu/all/bsp_locking.o
                0x00002768                bsp_init_hardware_locks
 .text.R_BSP_RegisterProtectEnable
                0x000027c8       0x60 ./synergy/ssp/src/bsp/mcu/all/bsp_register_protection.o
                0x000027c8                R_BSP_RegisterProtectEnable
 .text.R_BSP_RegisterProtectDisable
                0x00002828       0x54 ./synergy/ssp/src/bsp/mcu/all/bsp_register_protection.o
                0x00002828                R_BSP_RegisterProtectDisable
 .text.bsp_register_protect_open
                0x0000287c       0x10 ./synergy/ssp/src/bsp/mcu/all/bsp_register_protection.o
                0x0000287c                bsp_register_protect_open
 .text._sbrk    0x0000288c       0x3c ./synergy/ssp/src/bsp/mcu/all/bsp_sbrk.o
                0x0000288c                _sbrk
 .text.Default_Handler
                0x000028c8        0x4 ./synergy/ssp/src/bsp/cmsis/Device/RENESAS/S7G2/Source/startup_S7G2.o
                0x000028c8                DebugMon_Handler
                0x000028c8                HardFault_Handler
                0x000028c8                SysTick_Handler
                0x000028c8                PendSV_Handler
                0x000028c8                UsageFault_Handler
                0x000028c8                Default_Handler
                0x000028c8                MemManage_Handler
                0x000028c8                SVC_Handler
                0x000028c8                BusFault_Handler
 .text.Reset_Handler
                0x000028cc        0xc ./synergy/ssp/src/bsp/cmsis/Device/RENESAS/S7G2/Source/startup_S7G2.o
                0x000028cc                Reset_Handler
 .text.R_BSP_WarmStart
                0x000028d8        0x4 ./synergy/ssp/src/bsp/cmsis/Device/RENESAS/S7G2/Source/system_S7G2.o
                0x000028d8                R_BSP_WarmStart
 .text.SystemInit
                0x000028dc      0x160 ./synergy/ssp/src/bsp/cmsis/Device/RENESAS/S7G2/Source/system_S7G2.o
                0x000028dc                SystemInit
 .text.bsp_init
                0x00002a3c        0x4 ./synergy/board/s7g2_sk/bsp_init.o
                0x00002a3c                bsp_init
 .text.bsp_qspi_xip_enter
                0x00002a40       0x58 ./synergy/board/s7g2_sk/bsp_qspi.o
                0x00002a40                bsp_qspi_xip_enter
 .text.bsp_qspi_init
                0x00002a98      0x130 ./synergy/board/s7g2_sk/bsp_qspi.o
                0x00002a98                bsp_qspi_init
 .text.startup.main
                0x00002bc8        0xc ./src/synergy_gen/main.o
                0x00002bc8                main
 .text.hal_entry
                0x00002bd4       0x50 ./src/hal_entry.o
                0x00002bd4                hal_entry
 .text.R_FMI_ProductInfoGet
                0x00002c24       0x34 C:\Users\wesle\e2_studio\workspace\hello_world_basic\synergy\ssp\src\driver\r_fmi\libs\libfmi_cm4_s7g2_gcc.a(r_fmi.o)
 .text.R_FMI_VersionGet
                0x00002c58       0x10 C:\Users\wesle\e2_studio\workspace\hello_world_basic\synergy\ssp\src\driver\r_fmi\libs\libfmi_cm4_s7g2_gcc.a(r_fmi.o)
 .text.R_FMI_UniqueIdGet
                0x00002c68       0x40 C:\Users\wesle\e2_studio\workspace\hello_world_basic\synergy\ssp\src\driver\r_fmi\libs\libfmi_cm4_s7g2_gcc.a(r_fmi.o)
 .text.R_FMI_EventInfoGet
                0x00002ca8       0x8c C:\Users\wesle\e2_studio\workspace\hello_world_basic\synergy\ssp\src\driver\r_fmi\libs\libfmi_cm4_s7g2_gcc.a(r_fmi.o)
 .text.R_FMI_Init
                0x00002d34       0x90 C:\Users\wesle\e2_studio\workspace\hello_world_basic\synergy\ssp\src\driver\r_fmi\libs\libfmi_cm4_s7g2_gcc.a(r_fmi.o)
 .text.R_FMI_FeatureGet
                0x00002dc4      0x238 C:\Users\wesle\e2_studio\workspace\hello_world_basic\synergy\ssp\src\driver\r_fmi\libs\libfmi_cm4_s7g2_gcc.a(r_fmi.o)
 .text.__errno  0x00002ffc        0xc c:/renesas/synergy/e2studio_v2022-04_ssp_v2.3.0/toolchains/gcc_arm/gcc-arm-none-eabi-10.3-2021.10/bin/../lib/gcc/arm-none-eabi/10.3.1/../../../../arm-none-eabi/lib/thumb/v7e-m+fp/hard\libg_nano.a(lib_a-errno.o)
                0x00002ffc                __errno
 .text.memcpy   0x00003008       0x1c c:/renesas/synergy/e2studio_v2022-04_ssp_v2.3.0/toolchains/gcc_arm/gcc-arm-none-eabi-10.3-2021.10/bin/../lib/gcc/arm-none-eabi/10.3.1/../../../../arm-none-eabi/lib/thumb/v7e-m+fp/hard\libg_nano.a(lib_a-memcpy-stub.o)
                0x00003008                memcpy
 .text.memset   0x00003024       0x10 c:/renesas/synergy/e2studio_v2022-04_ssp_v2.3.0/toolchains/gcc_arm/gcc-arm-none-eabi-10.3-2021.10/bin/../lib/gcc/arm-none-eabi/10.3.1/../../../../arm-none-eabi/lib/thumb/v7e-m+fp/hard\libg_nano.a(lib_a-memset.o)
                0x00003024                memset
 .text.srand    0x00003034       0x5c c:/renesas/synergy/e2studio_v2022-04_ssp_v2.3.0/toolchains/gcc_arm/gcc-arm-none-eabi-10.3-2021.10/bin/../lib/gcc/arm-none-eabi/10.3.1/../../../../arm-none-eabi/lib/thumb/v7e-m+fp/hard\libg_nano.a(lib_a-rand.o)
                0x00003034                srand
 .text.__assert_func
                0x00003090       0x3c c:/renesas/synergy/e2studio_v2022-04_ssp_v2.3.0/toolchains/gcc_arm/gcc-arm-none-eabi-10.3-2021.10/bin/../lib/gcc/arm-none-eabi/10.3.1/../../../../arm-none-eabi/lib/thumb/v7e-m+fp/hard\libg_nano.a(lib_a-assert.o)
                0x00003090                __assert_func
 .text.fprintf  0x000030cc       0x24 c:/renesas/synergy/e2studio_v2022-04_ssp_v2.3.0/toolchains/gcc_arm/gcc-arm-none-eabi-10.3-2021.10/bin/../lib/gcc/arm-none-eabi/10.3.1/../../../../arm-none-eabi/lib/thumb/v7e-m+fp/hard\libg_nano.a(lib_a-fprintf.o)
                0x000030cc                fiprintf
                0x000030cc                fprintf
 .text.malloc   0x000030f0       0x10 c:/renesas/synergy/e2studio_v2022-04_ssp_v2.3.0/toolchains/gcc_arm/gcc-arm-none-eabi-10.3-2021.10/bin/../lib/gcc/arm-none-eabi/10.3.1/../../../../arm-none-eabi/lib/thumb/v7e-m+fp/hard\libg_nano.a(lib_a-malloc.o)
                0x000030f0                malloc
 .text._free_r  0x00003100       0x98 c:/renesas/synergy/e2studio_v2022-04_ssp_v2.3.0/toolchains/gcc_arm/gcc-arm-none-eabi-10.3-2021.10/bin/../lib/gcc/arm-none-eabi/10.3.1/../../../../arm-none-eabi/lib/thumb/v7e-m+fp/hard\libg_nano.a(lib_a-nano-freer.o)
                0x00003100                _free_r
 .text.sbrk_aligned
                0x00003198       0x40 c:/renesas/synergy/e2studio_v2022-04_ssp_v2.3.0/toolchains/gcc_arm/gcc-arm-none-eabi-10.3-2021.10/bin/../lib/gcc/arm-none-eabi/10.3.1/../../../../arm-none-eabi/lib/thumb/v7e-m+fp/hard\libg_nano.a(lib_a-nano-mallocr.o)
 .text._malloc_r
                0x000031d8       0xe8 c:/renesas/synergy/e2studio_v2022-04_ssp_v2.3.0/toolchains/gcc_arm/gcc-arm-none-eabi-10.3-2021.10/bin/../lib/gcc/arm-none-eabi/10.3.1/../../../../arm-none-eabi/lib/thumb/v7e-m+fp/hard\libg_nano.a(lib_a-nano-mallocr.o)
                0x000031d8                _malloc_r
 .text.__sfputc_r
                0x000032c0       0x2e c:/renesas/synergy/e2studio_v2022-04_ssp_v2.3.0/toolchains/gcc_arm/gcc-arm-none-eabi-10.3-2021.10/bin/../lib/gcc/arm-none-eabi/10.3.1/../../../../arm-none-eabi/lib/thumb/v7e-m+fp/hard\libg_nano.a(lib_a-nano-vfprintf.o)
 .text.__sfputs_r
                0x000032ee       0x24 c:/renesas/synergy/e2studio_v2022-04_ssp_v2.3.0/toolchains/gcc_arm/gcc-arm-none-eabi-10.3-2021.10/bin/../lib/gcc/arm-none-eabi/10.3.1/../../../../arm-none-eabi/lib/thumb/v7e-m+fp/hard\libg_nano.a(lib_a-nano-vfprintf.o)
                0x000032ee                __sfputs_r
 *fill*         0x00003312        0x2 ff
 .text._vfprintf_r
                0x00003314      0x260 c:/renesas/synergy/e2studio_v2022-04_ssp_v2.3.0/toolchains/gcc_arm/gcc-arm-none-eabi-10.3-2021.10/bin/../lib/gcc/arm-none-eabi/10.3.1/../../../../arm-none-eabi/lib/thumb/v7e-m+fp/hard\libg_nano.a(lib_a-nano-vfprintf.o)
                0x00003314                _vfprintf_r
                0x00003314                _vfiprintf_r
 .text._printf_common
                0x00003574       0xda c:/renesas/synergy/e2studio_v2022-04_ssp_v2.3.0/toolchains/gcc_arm/gcc-arm-none-eabi-10.3-2021.10/bin/../lib/gcc/arm-none-eabi/10.3.1/../../../../arm-none-eabi/lib/thumb/v7e-m+fp/hard\libg_nano.a(lib_a-nano-vfprintf_i.o)
                0x00003574                _printf_common
 *fill*         0x0000364e        0x2 ff
 .text._printf_i
                0x00003650      0x24c c:/renesas/synergy/e2studio_v2022-04_ssp_v2.3.0/toolchains/gcc_arm/gcc-arm-none-eabi-10.3-2021.10/bin/../lib/gcc/arm-none-eabi/10.3.1/../../../../arm-none-eabi/lib/thumb/v7e-m+fp/hard\libg_nano.a(lib_a-nano-vfprintf_i.o)
                0x00003650                _printf_i
 .text._sbrk_r  0x0000389c       0x20 c:/renesas/synergy/e2studio_v2022-04_ssp_v2.3.0/toolchains/gcc_arm/gcc-arm-none-eabi-10.3-2021.10/bin/../lib/gcc/arm-none-eabi/10.3.1/../../../../arm-none-eabi/lib/thumb/v7e-m+fp/hard\libg_nano.a(lib_a-sbrkr.o)
                0x0000389c                _sbrk_r
 .text.__swbuf_r
                0x000038bc       0xa4 c:/renesas/synergy/e2studio_v2022-04_ssp_v2.3.0/toolchains/gcc_arm/gcc-arm-none-eabi-10.3-2021.10/bin/../lib/gcc/arm-none-eabi/10.3.1/../../../../arm-none-eabi/lib/thumb/v7e-m+fp/hard\libg_nano.a(lib_a-wbuf.o)
                0x000038bc                __swbuf_r
 .text.__swsetup_r
                0x00003960       0xdc c:/renesas/synergy/e2studio_v2022-04_ssp_v2.3.0/toolchains/gcc_arm/gcc-arm-none-eabi-10.3-2021.10/bin/../lib/gcc/arm-none-eabi/10.3.1/../../../../arm-none-eabi/lib/thumb/v7e-m+fp/hard\libg_nano.a(lib_a-wsetup.o)
                0x00003960                __swsetup_r
 .text.abort    0x00003a3c        0xe c:/renesas/synergy/e2studio_v2022-04_ssp_v2.3.0/toolchains/gcc_arm/gcc-arm-none-eabi-10.3-2021.10/bin/../lib/gcc/arm-none-eabi/10.3.1/../../../../arm-none-eabi/lib/thumb/v7e-m+fp/hard\libg_nano.a(lib_a-abort.o)
                0x00003a3c                abort
 *fill*         0x00003a4a        0x2 ff
 .text.__sflush_r
                0x00003a4c      0x10c c:/renesas/synergy/e2studio_v2022-04_ssp_v2.3.0/toolchains/gcc_arm/gcc-arm-none-eabi-10.3-2021.10/bin/../lib/gcc/arm-none-eabi/10.3.1/../../../../arm-none-eabi/lib/thumb/v7e-m+fp/hard\libg_nano.a(lib_a-fflush.o)
                0x00003a4c                __sflush_r
 .text._fflush_r
                0x00003b58       0x78 c:/renesas/synergy/e2studio_v2022-04_ssp_v2.3.0/toolchains/gcc_arm/gcc-arm-none-eabi-10.3-2021.10/bin/../lib/gcc/arm-none-eabi/10.3.1/../../../../arm-none-eabi/lib/thumb/v7e-m+fp/hard\libg_nano.a(lib_a-fflush.o)
                0x00003b58                _fflush_r
 .text.std      0x00003bd0       0x48 c:/renesas/synergy/e2studio_v2022-04_ssp_v2.3.0/toolchains/gcc_arm/gcc-arm-none-eabi-10.3-2021.10/bin/../lib/gcc/arm-none-eabi/10.3.1/../../../../arm-none-eabi/lib/thumb/v7e-m+fp/hard\libg_nano.a(lib_a-findfp.o)
 .text._cleanup_r
                0x00003c18        0xc c:/renesas/synergy/e2studio_v2022-04_ssp_v2.3.0/toolchains/gcc_arm/gcc-arm-none-eabi-10.3-2021.10/bin/../lib/gcc/arm-none-eabi/10.3.1/../../../../arm-none-eabi/lib/thumb/v7e-m+fp/hard\libg_nano.a(lib_a-findfp.o)
                0x00003c18                _cleanup_r
 .text.__sfmoreglue
                0x00003c24       0x2c c:/renesas/synergy/e2studio_v2022-04_ssp_v2.3.0/toolchains/gcc_arm/gcc-arm-none-eabi-10.3-2021.10/bin/../lib/gcc/arm-none-eabi/10.3.1/../../../../arm-none-eabi/lib/thumb/v7e-m+fp/hard\libg_nano.a(lib_a-findfp.o)
                0x00003c24                __sfmoreglue
 .text.__sfp_lock_acquire
                0x00003c50        0xc c:/renesas/synergy/e2studio_v2022-04_ssp_v2.3.0/toolchains/gcc_arm/gcc-arm-none-eabi-10.3-2021.10/bin/../lib/gcc/arm-none-eabi/10.3.1/../../../../arm-none-eabi/lib/thumb/v7e-m+fp/hard\libg_nano.a(lib_a-findfp.o)
                0x00003c50                __sfp_lock_acquire
 .text.__sfp_lock_release
                0x00003c5c        0xc c:/renesas/synergy/e2studio_v2022-04_ssp_v2.3.0/toolchains/gcc_arm/gcc-arm-none-eabi-10.3-2021.10/bin/../lib/gcc/arm-none-eabi/10.3.1/../../../../arm-none-eabi/lib/thumb/v7e-m+fp/hard\libg_nano.a(lib_a-findfp.o)
                0x00003c5c                __sfp_lock_release
 .text.__sinit_lock_acquire
                0x00003c68        0xc c:/renesas/synergy/e2studio_v2022-04_ssp_v2.3.0/toolchains/gcc_arm/gcc-arm-none-eabi-10.3-2021.10/bin/../lib/gcc/arm-none-eabi/10.3.1/../../../../arm-none-eabi/lib/thumb/v7e-m+fp/hard\libg_nano.a(lib_a-findfp.o)
                0x00003c68                __sinit_lock_acquire
 .text.__sinit_lock_release
                0x00003c74        0xc c:/renesas/synergy/e2studio_v2022-04_ssp_v2.3.0/toolchains/gcc_arm/gcc-arm-none-eabi-10.3-2021.10/bin/../lib/gcc/arm-none-eabi/10.3.1/../../../../arm-none-eabi/lib/thumb/v7e-m+fp/hard\libg_nano.a(lib_a-findfp.o)
                0x00003c74                __sinit_lock_release
 .text.__sinit  0x00003c80       0x70 c:/renesas/synergy/e2studio_v2022-04_ssp_v2.3.0/toolchains/gcc_arm/gcc-arm-none-eabi-10.3-2021.10/bin/../lib/gcc/arm-none-eabi/10.3.1/../../../../arm-none-eabi/lib/thumb/v7e-m+fp/hard\libg_nano.a(lib_a-findfp.o)
                0x00003c80                __sinit
 .text.__sfp    0x00003cf0       0x8c c:/renesas/synergy/e2studio_v2022-04_ssp_v2.3.0/toolchains/gcc_arm/gcc-arm-none-eabi-10.3-2021.10/bin/../lib/gcc/arm-none-eabi/10.3.1/../../../../arm-none-eabi/lib/thumb/v7e-m+fp/hard\libg_nano.a(lib_a-findfp.o)
                0x00003cf0                __sfp
 .text._fwalk_reent
                0x00003d7c       0x3e c:/renesas/synergy/e2studio_v2022-04_ssp_v2.3.0/toolchains/gcc_arm/gcc-arm-none-eabi-10.3-2021.10/bin/../lib/gcc/arm-none-eabi/10.3.1/../../../../arm-none-eabi/lib/thumb/v7e-m+fp/hard\libg_nano.a(lib_a-fwalk.o)
                0x00003d7c                _fwalk_reent
 .text.__retarget_lock_init_recursive
                0x00003dba        0x2 c:/renesas/synergy/e2studio_v2022-04_ssp_v2.3.0/toolchains/gcc_arm/gcc-arm-none-eabi-10.3-2021.10/bin/../lib/gcc/arm-none-eabi/10.3.1/../../../../arm-none-eabi/lib/thumb/v7e-m+fp/hard\libg_nano.a(lib_a-lock.o)
                0x00003dba                __retarget_lock_init_recursive
 .text.__retarget_lock_acquire_recursive
                0x00003dbc        0x2 c:/renesas/synergy/e2studio_v2022-04_ssp_v2.3.0/toolchains/gcc_arm/gcc-arm-none-eabi-10.3-2021.10/bin/../lib/gcc/arm-none-eabi/10.3.1/../../../../arm-none-eabi/lib/thumb/v7e-m+fp/hard\libg_nano.a(lib_a-lock.o)
                0x00003dbc                __retarget_lock_acquire_recursive
 .text.__retarget_lock_release_recursive
                0x00003dbe        0x2 c:/renesas/synergy/e2studio_v2022-04_ssp_v2.3.0/toolchains/gcc_arm/gcc-arm-none-eabi-10.3-2021.10/bin/../lib/gcc/arm-none-eabi/10.3.1/../../../../arm-none-eabi/lib/thumb/v7e-m+fp/hard\libg_nano.a(lib_a-lock.o)
                0x00003dbe                __retarget_lock_release_recursive
 .text.__swhatbuf_r
                0x00003dc0       0x4a c:/renesas/synergy/e2studio_v2022-04_ssp_v2.3.0/toolchains/gcc_arm/gcc-arm-none-eabi-10.3-2021.10/bin/../lib/gcc/arm-none-eabi/10.3.1/../../../../arm-none-eabi/lib/thumb/v7e-m+fp/hard\libg_nano.a(lib_a-makebuf.o)
                0x00003dc0                __swhatbuf_r
 *fill*         0x00003e0a        0x2 ff
 .text.__smakebuf_r
                0x00003e0c       0x80 c:/renesas/synergy/e2studio_v2022-04_ssp_v2.3.0/toolchains/gcc_arm/gcc-arm-none-eabi-10.3-2021.10/bin/../lib/gcc/arm-none-eabi/10.3.1/../../../../arm-none-eabi/lib/thumb/v7e-m+fp/hard\libg_nano.a(lib_a-makebuf.o)
                0x00003e0c                __smakebuf_r
 *fill*         0x00003e8c        0x4 ff
 .text          0x00003e90       0xa0 c:/renesas/synergy/e2studio_v2022-04_ssp_v2.3.0/toolchains/gcc_arm/gcc-arm-none-eabi-10.3-2021.10/bin/../lib/gcc/arm-none-eabi/10.3.1/../../../../arm-none-eabi/lib/thumb/v7e-m+fp/hard\libg_nano.a(lib_a-memchr.o)
                0x00003e90                memchr
 .text.__malloc_lock
                0x00003f30        0xc c:/renesas/synergy/e2studio_v2022-04_ssp_v2.3.0/toolchains/gcc_arm/gcc-arm-none-eabi-10.3-2021.10/bin/../lib/gcc/arm-none-eabi/10.3.1/../../../../arm-none-eabi/lib/thumb/v7e-m+fp/hard\libg_nano.a(lib_a-mlock.o)
                0x00003f30                __malloc_lock
 .text.__malloc_unlock
                0x00003f3c        0xc c:/renesas/synergy/e2studio_v2022-04_ssp_v2.3.0/toolchains/gcc_arm/gcc-arm-none-eabi-10.3-2021.10/bin/../lib/gcc/arm-none-eabi/10.3.1/../../../../arm-none-eabi/lib/thumb/v7e-m+fp/hard\libg_nano.a(lib_a-mlock.o)
                0x00003f3c                __malloc_unlock
 .text._raise_r
                0x00003f48       0x50 c:/renesas/synergy/e2studio_v2022-04_ssp_v2.3.0/toolchains/gcc_arm/gcc-arm-none-eabi-10.3-2021.10/bin/../lib/gcc/arm-none-eabi/10.3.1/../../../../arm-none-eabi/lib/thumb/v7e-m+fp/hard\libg_nano.a(lib_a-signal.o)
                0x00003f48                _raise_r
 .text.raise    0x00003f98       0x10 c:/renesas/synergy/e2studio_v2022-04_ssp_v2.3.0/toolchains/gcc_arm/gcc-arm-none-eabi-10.3-2021.10/bin/../lib/gcc/arm-none-eabi/10.3.1/../../../../arm-none-eabi/lib/thumb/v7e-m+fp/hard\libg_nano.a(lib_a-signal.o)
                0x00003f98                raise
 .text._kill_r  0x00003fa8       0x24 c:/renesas/synergy/e2studio_v2022-04_ssp_v2.3.0/toolchains/gcc_arm/gcc-arm-none-eabi-10.3-2021.10/bin/../lib/gcc/arm-none-eabi/10.3.1/../../../../arm-none-eabi/lib/thumb/v7e-m+fp/hard\libg_nano.a(lib_a-signalr.o)
                0x00003fa8                _kill_r
 .text._getpid_r
                0x00003fcc        0x4 c:/renesas/synergy/e2studio_v2022-04_ssp_v2.3.0/toolchains/gcc_arm/gcc-arm-none-eabi-10.3-2021.10/bin/../lib/gcc/arm-none-eabi/10.3.1/../../../../arm-none-eabi/lib/thumb/v7e-m+fp/hard\libg_nano.a(lib_a-signalr.o)
                0x00003fcc                _getpid_r
 .text.__sread  0x00003fd0       0x22 c:/renesas/synergy/e2studio_v2022-04_ssp_v2.3.0/toolchains/gcc_arm/gcc-arm-none-eabi-10.3-2021.10/bin/../lib/gcc/arm-none-eabi/10.3.1/../../../../arm-none-eabi/lib/thumb/v7e-m+fp/hard\libg_nano.a(lib_a-stdio.o)
                0x00003fd0                __sread
 .text.__swrite
                0x00003ff2       0x38 c:/renesas/synergy/e2studio_v2022-04_ssp_v2.3.0/toolchains/gcc_arm/gcc-arm-none-eabi-10.3-2021.10/bin/../lib/gcc/arm-none-eabi/10.3.1/../../../../arm-none-eabi/lib/thumb/v7e-m+fp/hard\libg_nano.a(lib_a-stdio.o)
                0x00003ff2                __swrite
 .text.__sseek  0x0000402a       0x24 c:/renesas/synergy/e2studio_v2022-04_ssp_v2.3.0/toolchains/gcc_arm/gcc-arm-none-eabi-10.3-2021.10/bin/../lib/gcc/arm-none-eabi/10.3.1/../../../../arm-none-eabi/lib/thumb/v7e-m+fp/hard\libg_nano.a(lib_a-stdio.o)
                0x0000402a                __sseek
 .text.__sclose
                0x0000404e        0x8 c:/renesas/synergy/e2studio_v2022-04_ssp_v2.3.0/toolchains/gcc_arm/gcc-arm-none-eabi-10.3-2021.10/bin/../lib/gcc/arm-none-eabi/10.3.1/../../../../arm-none-eabi/lib/thumb/v7e-m+fp/hard\libg_nano.a(lib_a-stdio.o)
                0x0000404e                __sclose
 *fill*         0x00004056        0x2 ff
 .text._write_r
                0x00004058       0x24 c:/renesas/synergy/e2studio_v2022-04_ssp_v2.3.0/toolchains/gcc_arm/gcc-arm-none-eabi-10.3-2021.10/bin/../lib/gcc/arm-none-eabi/10.3.1/../../../../arm-none-eabi/lib/thumb/v7e-m+fp/hard\libg_nano.a(lib_a-writer.o)
                0x00004058                _write_r
 .text._close_r
                0x0000407c       0x20 c:/renesas/synergy/e2studio_v2022-04_ssp_v2.3.0/toolchains/gcc_arm/gcc-arm-none-eabi-10.3-2021.10/bin/../lib/gcc/arm-none-eabi/10.3.1/../../../../arm-none-eabi/lib/thumb/v7e-m+fp/hard\libg_nano.a(lib_a-closer.o)
                0x0000407c                _close_r
 .text._fstat_r
                0x0000409c       0x24 c:/renesas/synergy/e2studio_v2022-04_ssp_v2.3.0/toolchains/gcc_arm/gcc-arm-none-eabi-10.3-2021.10/bin/../lib/gcc/arm-none-eabi/10.3.1/../../../../arm-none-eabi/lib/thumb/v7e-m+fp/hard\libg_nano.a(lib_a-fstatr.o)
                0x0000409c                _fstat_r
 .text._isatty_r
                0x000040c0       0x20 c:/renesas/synergy/e2studio_v2022-04_ssp_v2.3.0/toolchains/gcc_arm/gcc-arm-none-eabi-10.3-2021.10/bin/../lib/gcc/arm-none-eabi/10.3.1/../../../../arm-none-eabi/lib/thumb/v7e-m+fp/hard\libg_nano.a(lib_a-isattyr.o)
                0x000040c0                _isatty_r
 .text._lseek_r
                0x000040e0       0x24 c:/renesas/synergy/e2studio_v2022-04_ssp_v2.3.0/toolchains/gcc_arm/gcc-arm-none-eabi-10.3-2021.10/bin/../lib/gcc/arm-none-eabi/10.3.1/../../../../arm-none-eabi/lib/thumb/v7e-m+fp/hard\libg_nano.a(lib_a-lseekr.o)
                0x000040e0                _lseek_r
 .text._read_r  0x00004104       0x24 c:/renesas/synergy/e2studio_v2022-04_ssp_v2.3.0/toolchains/gcc_arm/gcc-arm-none-eabi-10.3-2021.10/bin/../lib/gcc/arm-none-eabi/10.3.1/../../../../arm-none-eabi/lib/thumb/v7e-m+fp/hard\libg_nano.a(lib_a-readr.o)
                0x00004104                _read_r
 .text.findslot
                0x00004128       0x34 c:/renesas/synergy/e2studio_v2022-04_ssp_v2.3.0/toolchains/gcc_arm/gcc-arm-none-eabi-10.3-2021.10/bin/../lib/gcc/arm-none-eabi/10.3.1/../../../../arm-none-eabi/lib/thumb/v7e-m+fp/hard\librdimon_nano.a(rdimon-syscalls.o)
 .text.error    0x0000415c       0x1c c:/renesas/synergy/e2studio_v2022-04_ssp_v2.3.0/toolchains/gcc_arm/gcc-arm-none-eabi-10.3-2021.10/bin/../lib/gcc/arm-none-eabi/10.3.1/../../../../arm-none-eabi/lib/thumb/v7e-m+fp/hard\librdimon_nano.a(rdimon-syscalls.o)
 .text.checkerror
                0x00004178        0xa c:/renesas/synergy/e2studio_v2022-04_ssp_v2.3.0/toolchains/gcc_arm/gcc-arm-none-eabi-10.3-2021.10/bin/../lib/gcc/arm-none-eabi/10.3.1/../../../../arm-none-eabi/lib/thumb/v7e-m+fp/hard\librdimon_nano.a(rdimon-syscalls.o)
 .text._swiread
                0x00004182       0x20 c:/renesas/synergy/e2studio_v2022-04_ssp_v2.3.0/toolchains/gcc_arm/gcc-arm-none-eabi-10.3-2021.10/bin/../lib/gcc/arm-none-eabi/10.3.1/../../../../arm-none-eabi/lib/thumb/v7e-m+fp/hard\librdimon_nano.a(rdimon-syscalls.o)
                0x00004182                _swiread
 .text._read    0x000041a2       0x38 c:/renesas/synergy/e2studio_v2022-04_ssp_v2.3.0/toolchains/gcc_arm/gcc-arm-none-eabi-10.3-2021.10/bin/../lib/gcc/arm-none-eabi/10.3.1/../../../../arm-none-eabi/lib/thumb/v7e-m+fp/hard\librdimon_nano.a(rdimon-syscalls.o)
                0x000041a2                _read
 .text._swilseek
                0x000041da       0x78 c:/renesas/synergy/e2studio_v2022-04_ssp_v2.3.0/toolchains/gcc_arm/gcc-arm-none-eabi-10.3-2021.10/bin/../lib/gcc/arm-none-eabi/10.3.1/../../../../arm-none-eabi/lib/thumb/v7e-m+fp/hard\librdimon_nano.a(rdimon-syscalls.o)
                0x000041da                _swilseek
 .text._lseek   0x00004252        0x4 c:/renesas/synergy/e2studio_v2022-04_ssp_v2.3.0/toolchains/gcc_arm/gcc-arm-none-eabi-10.3-2021.10/bin/../lib/gcc/arm-none-eabi/10.3.1/../../../../arm-none-eabi/lib/thumb/v7e-m+fp/hard\librdimon_nano.a(rdimon-syscalls.o)
                0x00004252                _lseek
 .text._swiwrite
                0x00004256       0x20 c:/renesas/synergy/e2studio_v2022-04_ssp_v2.3.0/toolchains/gcc_arm/gcc-arm-none-eabi-10.3-2021.10/bin/../lib/gcc/arm-none-eabi/10.3.1/../../../../arm-none-eabi/lib/thumb/v7e-m+fp/hard\librdimon_nano.a(rdimon-syscalls.o)
                0x00004256                _swiwrite
 .text._write   0x00004276       0x48 c:/renesas/synergy/e2studio_v2022-04_ssp_v2.3.0/toolchains/gcc_arm/gcc-arm-none-eabi-10.3-2021.10/bin/../lib/gcc/arm-none-eabi/10.3.1/../../../../arm-none-eabi/lib/thumb/v7e-m+fp/hard\librdimon_nano.a(rdimon-syscalls.o)
                0x00004276                _write
 .text._swiclose
                0x000042be       0x1a c:/renesas/synergy/e2studio_v2022-04_ssp_v2.3.0/toolchains/gcc_arm/gcc-arm-none-eabi-10.3-2021.10/bin/../lib/gcc/arm-none-eabi/10.3.1/../../../../arm-none-eabi/lib/thumb/v7e-m+fp/hard\librdimon_nano.a(rdimon-syscalls.o)
                0x000042be                _swiclose
 .text._close   0x000042d8       0x4c c:/renesas/synergy/e2studio_v2022-04_ssp_v2.3.0/toolchains/gcc_arm/gcc-arm-none-eabi-10.3-2021.10/bin/../lib/gcc/arm-none-eabi/10.3.1/../../../../arm-none-eabi/lib/thumb/v7e-m+fp/hard\librdimon_nano.a(rdimon-syscalls.o)
                0x000042d8                _close
 .text._getpid  0x00004324        0x4 c:/renesas/synergy/e2studio_v2022-04_ssp_v2.3.0/toolchains/gcc_arm/gcc-arm-none-eabi-10.3-2021.10/bin/../lib/gcc/arm-none-eabi/10.3.1/../../../../arm-none-eabi/lib/thumb/v7e-m+fp/hard\librdimon_nano.a(rdimon-syscalls.o)
                0x00004324                _getpid
 .text._swistat
                0x00004328       0x42 c:/renesas/synergy/e2studio_v2022-04_ssp_v2.3.0/toolchains/gcc_arm/gcc-arm-none-eabi-10.3-2021.10/bin/../lib/gcc/arm-none-eabi/10.3.1/../../../../arm-none-eabi/lib/thumb/v7e-m+fp/hard\librdimon_nano.a(rdimon-syscalls.o)
                0x00004328                _swistat
 .text._fstat   0x0000436a       0x1c c:/renesas/synergy/e2studio_v2022-04_ssp_v2.3.0/toolchains/gcc_arm/gcc-arm-none-eabi-10.3-2021.10/bin/../lib/gcc/arm-none-eabi/10.3.1/../../../../arm-none-eabi/lib/thumb/v7e-m+fp/hard\librdimon_nano.a(rdimon-syscalls.o)
                0x0000436a                _fstat
 .text._stat    0x00004386       0x3a c:/renesas/synergy/e2studio_v2022-04_ssp_v2.3.0/toolchains/gcc_arm/gcc-arm-none-eabi-10.3-2021.10/bin/../lib/gcc/arm-none-eabi/10.3.1/../../../../arm-none-eabi/lib/thumb/v7e-m+fp/hard\librdimon_nano.a(rdimon-syscalls.o)
                0x00004386                _stat
 .text._swiopen
                0x000043c0       0xb4 c:/renesas/synergy/e2studio_v2022-04_ssp_v2.3.0/toolchains/gcc_arm/gcc-arm-none-eabi-10.3-2021.10/bin/../lib/gcc/arm-none-eabi/10.3.1/../../../../arm-none-eabi/lib/thumb/v7e-m+fp/hard\librdimon_nano.a(rdimon-syscalls.o)
                0x000043c0                _swiopen
 .text._get_semihosting_exts
                0x00004474       0xb8 c:/renesas/synergy/e2studio_v2022-04_ssp_v2.3.0/toolchains/gcc_arm/gcc-arm-none-eabi-10.3-2021.10/bin/../lib/gcc/arm-none-eabi/10.3.1/../../../../arm-none-eabi/lib/thumb/v7e-m+fp/hard\librdimon_nano.a(rdimon-syscalls.o)
                0x00004474                _get_semihosting_exts
 .text.initialise_semihosting_exts
                0x0000452c       0x34 c:/renesas/synergy/e2studio_v2022-04_ssp_v2.3.0/toolchains/gcc_arm/gcc-arm-none-eabi-10.3-2021.10/bin/../lib/gcc/arm-none-eabi/10.3.1/../../../../arm-none-eabi/lib/thumb/v7e-m+fp/hard\librdimon_nano.a(rdimon-syscalls.o)
 .text._has_ext_exit_extended
                0x00004560       0x18 c:/renesas/synergy/e2studio_v2022-04_ssp_v2.3.0/toolchains/gcc_arm/gcc-arm-none-eabi-10.3-2021.10/bin/../lib/gcc/arm-none-eabi/10.3.1/../../../../arm-none-eabi/lib/thumb/v7e-m+fp/hard\librdimon_nano.a(rdimon-syscalls.o)
                0x00004560                _has_ext_exit_extended
 .text._isatty  0x00004578       0x38 c:/renesas/synergy/e2studio_v2022-04_ssp_v2.3.0/toolchains/gcc_arm/gcc-arm-none-eabi-10.3-2021.10/bin/../lib/gcc/arm-none-eabi/10.3.1/../../../../arm-none-eabi/lib/thumb/v7e-m+fp/hard\librdimon_nano.a(rdimon-syscalls.o)
                0x00004578                _isatty
 .text._exit    0x000045b0       0x14 c:/renesas/synergy/e2studio_v2022-04_ssp_v2.3.0/toolchains/gcc_arm/gcc-arm-none-eabi-10.3-2021.10/bin/../lib/gcc/arm-none-eabi/10.3.1/../../../../arm-none-eabi/lib/thumb/v7e-m+fp/hard\librdimon_nano.a(rdimon-_exit.o)
                0x000045b0                _exit
 .text._kill_shared
                0x000045c4       0x26 c:/renesas/synergy/e2studio_v2022-04_ssp_v2.3.0/toolchains/gcc_arm/gcc-arm-none-eabi-10.3-2021.10/bin/../lib/gcc/arm-none-eabi/10.3.1/../../../../arm-none-eabi/lib/thumb/v7e-m+fp/hard\librdimon_nano.a(rdimon-_kill.o)
                0x000045c4                _kill_shared
 *fill*         0x000045ea        0x2 ff
 .text._kill    0x000045ec       0x18 c:/renesas/synergy/e2studio_v2022-04_ssp_v2.3.0/toolchains/gcc_arm/gcc-arm-none-eabi-10.3-2021.10/bin/../lib/gcc/arm-none-eabi/10.3.1/../../../../arm-none-eabi/lib/thumb/v7e-m+fp/hard\librdimon_nano.a(rdimon-_kill.o)
                0x000045ec                _kill
 .text          0x00004604       0x10 c:/renesas/synergy/e2studio_v2022-04_ssp_v2.3.0/toolchains/gcc_arm/gcc-arm-none-eabi-10.3-2021.10/bin/../lib/gcc/arm-none-eabi/10.3.1/../../../../arm-none-eabi/lib/thumb/v7e-m+fp/hard\libc_nano.a(lib_a-strlen.o)
                0x00004604                strlen
 *(.version)
 .version       0x00004614       0x7c ./synergy/ssp/src/bsp/mcu/all/bsp_common.o
 *(.init)
 .init          0x00004690        0x4 c:/renesas/synergy/e2studio_v2022-04_ssp_v2.3.0/toolchains/gcc_arm/gcc-arm-none-eabi-10.3-2021.10/bin/../lib/gcc/arm-none-eabi/10.3.1/thumb/v7e-m+fp/hard/crti.o
                0x00004690                _init
 .init          0x00004694        0x8 c:/renesas/synergy/e2studio_v2022-04_ssp_v2.3.0/toolchains/gcc_arm/gcc-arm-none-eabi-10.3-2021.10/bin/../lib/gcc/arm-none-eabi/10.3.1/thumb/v7e-m+fp/hard/crtn.o
 *(.fini)
 .fini          0x0000469c        0x4 c:/renesas/synergy/e2studio_v2022-04_ssp_v2.3.0/toolchains/gcc_arm/gcc-arm-none-eabi-10.3-2021.10/bin/../lib/gcc/arm-none-eabi/10.3.1/thumb/v7e-m+fp/hard/crti.o
                0x0000469c                _fini
 .fini          0x000046a0        0x8 c:/renesas/synergy/e2studio_v2022-04_ssp_v2.3.0/toolchains/gcc_arm/gcc-arm-none-eabi-10.3-2021.10/bin/../lib/gcc/arm-none-eabi/10.3.1/thumb/v7e-m+fp/hard/crtn.o
 *crtbegin.o(.ctors)
 *crtbegin?.o(.ctors)
 *(EXCLUDE_FILE(*crtend.o *crtend?.o) .ctors)
 *(SORT_BY_NAME(.ctors.*))
 *(.ctors)
 *crtbegin.o(.dtors)
 *crtbegin?.o(.dtors)
 *(EXCLUDE_FILE(*crtend.o *crtend?.o) .dtors)
 *(SORT_BY_NAME(.dtors.*))
 *(.dtors)
 *(.rodata*)
 .rodata.g_ioport_on_ioport
                0x000046a8       0x3c ./synergy/ssp/src/driver/r_ioport/r_ioport.o
                0x000046a8                g_ioport_on_ioport
 .rodata.g_elc_on_elc
                0x000046e4       0x1c ./synergy/ssp/src/driver/r_elc/r_elc.o
                0x000046e4                g_elc_on_elc
 .rodata.g_cgc_on_cgc
                0x00004700       0x6c ./synergy/ssp/src/driver/r_cgc/r_cgc.o
                0x00004700                g_cgc_on_cgc
 .rodata.g_pllccr2_div_setting
                0x0000476c        0x8 ./synergy/ssp/src/driver/r_cgc/r_cgc.o
 .rodata.g_pllccr2_div_value
                0x00004774        0x6 ./synergy/ssp/src/driver/r_cgc/r_cgc.o
 *fill*         0x0000477a        0x2 ff
 .rodata.g_pllccr_div_setting
                0x0000477c        0x6 ./synergy/ssp/src/driver/r_cgc/r_cgc.o
 *fill*         0x00004782        0x2 ff
 .rodata.g_pllccr_div_value
                0x00004784        0x6 ./synergy/ssp/src/driver/r_cgc/r_cgc.o
 *fill*         0x0000478a        0x2 ff
 .rodata.g_cgc_feature
                0x0000478c       0x2c ./synergy/ssp/src/bsp/mcu/s7g2/bsp_feature.o
 .rodata.g_bsp_module_stop
                0x000047b8       0x46 ./synergy/ssp/src/bsp/mcu/s7g2/bsp_module_stop.o
 *fill*         0x000047fe        0x2 ff
 .rodata.gp_mstp
                0x00004800       0x10 ./synergy/ssp/src/bsp/mcu/s7g2/bsp_module_stop.o
 .rodata.gp_vector_information
                0x00004810        0x4 ./synergy/ssp/src/bsp/mcu/all/bsp_irq.o
                0x00004810                gp_vector_information
 .rodata.g_prcr_masks
                0x00004814        0x6 ./synergy/ssp/src/bsp/mcu/all/bsp_register_protection.o
 *fill*         0x0000481a        0x2 ff
 .rodata.g_elc_cfg
                0x0000481c        0xc ./synergy/ssp/src/bsp/cmsis/Device/RENESAS/S7G2/Source/system_S7G2.o
 .rodata.g_bsp_leds
                0x00004828        0x8 ./synergy/board/s7g2_sk/bsp_leds.o
                0x00004828                g_bsp_leds
 .rodata.g_bsp_prv_leds
                0x00004830        0x6 ./synergy/board/s7g2_sk/bsp_leds.o
 *fill*         0x00004836        0x2 ff
 .rodata.g_ioport
                0x00004838        0x8 ./src/synergy_gen/common_data.o
                0x00004838                g_ioport
 .rodata.g_bsp_pin_cfg
                0x00004840        0x8 ./src/synergy_gen/pin_data.o
                0x00004840                g_bsp_pin_cfg
 .rodata.g_bsp_pin_cfg_data
                0x00004848      0x370 ./src/synergy_gen/pin_data.o
                0x00004848                g_bsp_pin_cfg_data
 .rodata.bit_count
                0x00004bb8       0x80 C:\Users\wesle\e2_studio\workspace\hello_world_basic\synergy\ssp\src\driver\r_fmi\libs\libfmi_cm4_s7g2_gcc.a(r_fmi.o)
 .rodata.bit_count_mask
                0x00004c38        0x8 C:\Users\wesle\e2_studio\workspace\hello_world_basic\synergy\ssp\src\driver\r_fmi\libs\libfmi_cm4_s7g2_gcc.a(r_fmi.o)
 .rodata.g_fmi_on_fmi
                0x00004c40       0x18 C:\Users\wesle\e2_studio\workspace\hello_world_basic\synergy\ssp\src\driver\r_fmi\libs\libfmi_cm4_s7g2_gcc.a(r_fmi.o)
                0x00004c40                g_fmi_on_fmi
 .rodata.g_fmi_data
                0x00004c58      0x400 C:\Users\wesle\e2_studio\workspace\hello_world_basic\synergy\ssp\src\bsp\mcu\s7g2\libfmi_R7FS7G27H3A01CFC_gcc.a(bsp_fmi_R7FS7G27H3A01CFC.o)
                0x00004c58                g_fmi_data
 .rodata._global_impure_ptr
                0x00005058        0x4 c:/renesas/synergy/e2studio_v2022-04_ssp_v2.3.0/toolchains/gcc_arm/gcc-arm-none-eabi-10.3-2021.10/bin/../lib/gcc/arm-none-eabi/10.3.1/../../../../arm-none-eabi/lib/thumb/v7e-m+fp/hard\libg_nano.a(lib_a-impure.o)
                0x00005058                _global_impure_ptr
 .rodata.srand.str1.1
                0x0000505c       0x95 c:/renesas/synergy/e2studio_v2022-04_ssp_v2.3.0/toolchains/gcc_arm/gcc-arm-none-eabi-10.3-2021.10/bin/../lib/gcc/arm-none-eabi/10.3.1/../../../../arm-none-eabi/lib/thumb/v7e-m+fp/hard\libg_nano.a(lib_a-rand.o)
 .rodata.__assert_func.str1.1
                0x000050f1       0x3c c:/renesas/synergy/e2studio_v2022-04_ssp_v2.3.0/toolchains/gcc_arm/gcc-arm-none-eabi-10.3-2021.10/bin/../lib/gcc/arm-none-eabi/10.3.1/../../../../arm-none-eabi/lib/thumb/v7e-m+fp/hard\libg_nano.a(lib_a-assert.o)
                                 0x3d (size before relaxing)
 .rodata._vfprintf_r.str1.1
                0x0000512d       0x11 c:/renesas/synergy/e2studio_v2022-04_ssp_v2.3.0/toolchains/gcc_arm/gcc-arm-none-eabi-10.3-2021.10/bin/../lib/gcc/arm-none-eabi/10.3.1/../../../../arm-none-eabi/lib/thumb/v7e-m+fp/hard\libg_nano.a(lib_a-nano-vfprintf.o)
 .rodata._printf_i.str1.1
                0x0000513e       0x22 c:/renesas/synergy/e2studio_v2022-04_ssp_v2.3.0/toolchains/gcc_arm/gcc-arm-none-eabi-10.3-2021.10/bin/../lib/gcc/arm-none-eabi/10.3.1/../../../../arm-none-eabi/lib/thumb/v7e-m+fp/hard\libg_nano.a(lib_a-nano-vfprintf_i.o)
 .rodata.__sf_fake_stderr
                0x00005160       0x20 c:/renesas/synergy/e2studio_v2022-04_ssp_v2.3.0/toolchains/gcc_arm/gcc-arm-none-eabi-10.3-2021.10/bin/../lib/gcc/arm-none-eabi/10.3.1/../../../../arm-none-eabi/lib/thumb/v7e-m+fp/hard\libg_nano.a(lib_a-findfp.o)
                0x00005160                __sf_fake_stderr
 .rodata.__sf_fake_stdin
                0x00005180       0x20 c:/renesas/synergy/e2studio_v2022-04_ssp_v2.3.0/toolchains/gcc_arm/gcc-arm-none-eabi-10.3-2021.10/bin/../lib/gcc/arm-none-eabi/10.3.1/../../../../arm-none-eabi/lib/thumb/v7e-m+fp/hard\libg_nano.a(lib_a-findfp.o)
                0x00005180                __sf_fake_stdin
 .rodata.__sf_fake_stdout
                0x000051a0       0x20 c:/renesas/synergy/e2studio_v2022-04_ssp_v2.3.0/toolchains/gcc_arm/gcc-arm-none-eabi-10.3-2021.10/bin/../lib/gcc/arm-none-eabi/10.3.1/../../../../arm-none-eabi/lib/thumb/v7e-m+fp/hard\libg_nano.a(lib_a-findfp.o)
                0x000051a0                __sf_fake_stdout
 .rodata._get_semihosting_exts.str1.1
                0x000051c0       0x16 c:/renesas/synergy/e2studio_v2022-04_ssp_v2.3.0/toolchains/gcc_arm/gcc-arm-none-eabi-10.3-2021.10/bin/../lib/gcc/arm-none-eabi/10.3.1/../../../../arm-none-eabi/lib/thumb/v7e-m+fp/hard\librdimon_nano.a(rdimon-syscalls.o)
                0x000051d6                __usb_dev_descriptor_start_fs = .
 *(.usb_device_desc_fs*)
                0x000051d6                __usb_cfg_descriptor_start_fs = .
 *(.usb_config_desc_fs*)
                0x000051d6                __usb_interface_descriptor_start_fs = .
 *(.usb_interface_desc_fs*)
                0x000051d6                __usb_descriptor_end_fs = .
                0x000051d6                __usb_dev_descriptor_start_hs = .
 *(.usb_device_desc_hs*)
                0x000051d6                __usb_cfg_descriptor_start_hs = .
 *(.usb_config_desc_hs*)
                0x000051d6                __usb_interface_descriptor_start_hs = .
 *(.usb_interface_desc_hs*)
                0x000051d6                __usb_descriptor_end_hs = .
 *(.eh_frame*)
 *fill*         0x000051d6        0x2 ff
 .eh_frame      0x000051d8        0x0 c:/renesas/synergy/e2studio_v2022-04_ssp_v2.3.0/toolchains/gcc_arm/gcc-arm-none-eabi-10.3-2021.10/bin/../lib/gcc/arm-none-eabi/10.3.1/thumb/v7e-m+fp/hard/crtbegin.o
 .eh_frame      0x000051d8        0x4 c:/renesas/synergy/e2studio_v2022-04_ssp_v2.3.0/toolchains/gcc_arm/gcc-arm-none-eabi-10.3-2021.10/bin/../lib/gcc/arm-none-eabi/10.3.1/thumb/v7e-m+fp/hard/crtend.o
                0x000051dc                __ROM_End = .
                0x00000040                __Vectors_Size = (__Vectors_End - __Vectors)
                0x00000000                __Vector_Info_Size = (__Vector_Info_End - __Vector_Info_Start)
                0x000001b0                __Lock_Lookup_Size = (__Lock_Lookup_End - __Lock_Lookup_Start)

.glue_7         0x000051dc        0x0
 .glue_7        0x000051dc        0x0 linker stubs

.glue_7t        0x000051dc        0x0
 .glue_7t       0x000051dc        0x0 linker stubs

.vfp11_veneer   0x000051dc        0x0
 .vfp11_veneer  0x000051dc        0x0 linker stubs

.v4_bx          0x000051dc        0x0
 .v4_bx         0x000051dc        0x0 linker stubs

.iplt           0x000051dc        0x0
 .iplt          0x000051dc        0x0 c:/renesas/synergy/e2studio_v2022-04_ssp_v2.3.0/toolchains/gcc_arm/gcc-arm-none-eabi-10.3-2021.10/bin/../lib/gcc/arm-none-eabi/10.3.1/thumb/v7e-m+fp/hard/crtbegin.o

.ARM.extab
 *(.ARM.extab* .gnu.linkonce.armextab.*)
                0x000051dc                __exidx_start = .

.ARM.exidx
 *(.ARM.exidx* .gnu.linkonce.armexidx.*)
                0x000051dc                __exidx_end = .
                0x000051dc                __etext = .

.ssp_dtc_vector_table
                0x1ffe0000        0x0
                0x1ffe0000                . = ORIGIN (RAM)
 *(.ssp_dtc_vector_table)

.data           0x1ffe0000       0xe0 load address 0x000051dc
                0x1ffe0000                __data_start__ = .
 *(vtable)
 *(.data*)
 .data._impure_ptr
                0x1ffe0000        0x4 c:/renesas/synergy/e2studio_v2022-04_ssp_v2.3.0/toolchains/gcc_arm/gcc-arm-none-eabi-10.3-2021.10/bin/../lib/gcc/arm-none-eabi/10.3.1/../../../../arm-none-eabi/lib/thumb/v7e-m+fp/hard\libg_nano.a(lib_a-impure.o)
                0x1ffe0000                _impure_ptr
 .data.impure_data
                0x1ffe0004       0x60 c:/renesas/synergy/e2studio_v2022-04_ssp_v2.3.0/toolchains/gcc_arm/gcc-arm-none-eabi-10.3-2021.10/bin/../lib/gcc/arm-none-eabi/10.3.1/../../../../arm-none-eabi/lib/thumb/v7e-m+fp/hard\libg_nano.a(lib_a-impure.o)
 .data.supports_ext_exit_extended
                0x1ffe0064        0x4 c:/renesas/synergy/e2studio_v2022-04_ssp_v2.3.0/toolchains/gcc_arm/gcc-arm-none-eabi-10.3-2021.10/bin/../lib/gcc/arm-none-eabi/10.3.1/../../../../arm-none-eabi/lib/thumb/v7e-m+fp/hard\librdimon_nano.a(rdimon-syscalls.o)
 .data.supports_ext_stdout_stderr
                0x1ffe0068        0x4 c:/renesas/synergy/e2studio_v2022-04_ssp_v2.3.0/toolchains/gcc_arm/gcc-arm-none-eabi-10.3-2021.10/bin/../lib/gcc/arm-none-eabi/10.3.1/../../../../arm-none-eabi/lib/thumb/v7e-m+fp/hard\librdimon_nano.a(rdimon-syscalls.o)
                0x1ffe006c                . = ALIGN (0x4)
                0x1ffe006c                PROVIDE (__preinit_array_start = .)
 *(.preinit_array)
                0x1ffe006c                PROVIDE (__preinit_array_end = .)
                0x1ffe006c                . = ALIGN (0x4)
                0x1ffe006c                PROVIDE (__init_array_start = .)
 *(SORT_BY_NAME(.init_array.*))
 *(.init_array)
 .init_array    0x1ffe006c        0x4 c:/renesas/synergy/e2studio_v2022-04_ssp_v2.3.0/toolchains/gcc_arm/gcc-arm-none-eabi-10.3-2021.10/bin/../lib/gcc/arm-none-eabi/10.3.1/thumb/v7e-m+fp/hard/crtbegin.o
                0x1ffe0070                PROVIDE (__init_array_end = .)
                0x1ffe0070                . = ALIGN (0x4)
                [!provide]                PROVIDE (__fini_array_start = .)
 *(SORT_BY_NAME(.fini_array.*))
 *(.fini_array)
 .fini_array    0x1ffe0070        0x4 c:/renesas/synergy/e2studio_v2022-04_ssp_v2.3.0/toolchains/gcc_arm/gcc-arm-none-eabi-10.3-2021.10/bin/../lib/gcc/arm-none-eabi/10.3.1/thumb/v7e-m+fp/hard/crtbegin.o
                [!provide]                PROVIDE (__fini_array_end = .)
 *(.jcr*)
                0x1ffe0074                . = ALIGN (0x4)
                0x1ffe0074                __Code_In_RAM_Start = .
 *(.code_in_ram*)
                0x1ffe0074                __Code_In_RAM_End = .
                0x1ffe0074                __Lock_Start = .
 *(SORT_BY_NAME(.hw_lock*))
 .hw_lock.ADC_0U_0U
                0x1ffe0074        0x1 ./synergy/ssp/src/bsp/mcu/s7g2/bsp_hw_locks.o
                0x1ffe0074                g_hw_lock_ADC_0U_0U
 .hw_lock.ADC_0U_1U
                0x1ffe0075        0x1 ./synergy/ssp/src/bsp/mcu/s7g2/bsp_hw_locks.o
                0x1ffe0075                g_hw_lock_ADC_0U_1U
 .hw_lock.AGT_0U_0U
                0x1ffe0076        0x1 ./synergy/ssp/src/bsp/mcu/s7g2/bsp_hw_locks.o
                0x1ffe0076                g_hw_lock_AGT_0U_0U
 .hw_lock.AGT_0U_1U
                0x1ffe0077        0x1 ./synergy/ssp/src/bsp/mcu/s7g2/bsp_hw_locks.o
                0x1ffe0077                g_hw_lock_AGT_0U_1U
 .hw_lock.BSC_0U_1U
                0x1ffe0078        0x1 ./synergy/ssp/src/bsp/mcu/s7g2/bsp_hw_locks.o
                0x1ffe0078                g_hw_lock_BSC_0U_1U
 .hw_lock.CAC_0U_0U
                0x1ffe0079        0x1 ./synergy/ssp/src/bsp/mcu/s7g2/bsp_hw_locks.o
                0x1ffe0079                g_hw_lock_CAC_0U_0U
 .hw_lock.CAN_0U_0U
                0x1ffe007a        0x1 ./synergy/ssp/src/bsp/mcu/s7g2/bsp_hw_locks.o
                0x1ffe007a                g_hw_lock_CAN_0U_0U
 .hw_lock.CAN_0U_1U
                0x1ffe007b        0x1 ./synergy/ssp/src/bsp/mcu/s7g2/bsp_hw_locks.o
                0x1ffe007b                g_hw_lock_CAN_0U_1U
 .hw_lock.COMP_HS_0U_0U
                0x1ffe007c        0x1 ./synergy/ssp/src/bsp/mcu/s7g2/bsp_hw_locks.o
                0x1ffe007c                g_hw_lock_COMP_HS_0U_0U
 .hw_lock.COMP_HS_0U_1U
                0x1ffe007d        0x1 ./synergy/ssp/src/bsp/mcu/s7g2/bsp_hw_locks.o
                0x1ffe007d                g_hw_lock_COMP_HS_0U_1U
 .hw_lock.COMP_HS_0U_2U
                0x1ffe007e        0x1 ./synergy/ssp/src/bsp/mcu/s7g2/bsp_hw_locks.o
                0x1ffe007e                g_hw_lock_COMP_HS_0U_2U
 .hw_lock.COMP_HS_0U_3U
                0x1ffe007f        0x1 ./synergy/ssp/src/bsp/mcu/s7g2/bsp_hw_locks.o
                0x1ffe007f                g_hw_lock_COMP_HS_0U_3U
 .hw_lock.COMP_HS_0U_4U
                0x1ffe0080        0x1 ./synergy/ssp/src/bsp/mcu/s7g2/bsp_hw_locks.o
                0x1ffe0080                g_hw_lock_COMP_HS_0U_4U
 .hw_lock.COMP_HS_0U_5U
                0x1ffe0081        0x1 ./synergy/ssp/src/bsp/mcu/s7g2/bsp_hw_locks.o
                0x1ffe0081                g_hw_lock_COMP_HS_0U_5U
 .hw_lock.CRC_0U_0U
                0x1ffe0082        0x1 ./synergy/ssp/src/bsp/mcu/s7g2/bsp_hw_locks.o
                0x1ffe0082                g_hw_lock_CRC_0U_0U
 .hw_lock.CTSU_0U_0U
                0x1ffe0083        0x1 ./synergy/ssp/src/bsp/mcu/s7g2/bsp_hw_locks.o
                0x1ffe0083                g_hw_lock_CTSU_0U_0U
 .hw_lock.DAAD_0U_0U
                0x1ffe0084        0x1 ./synergy/ssp/src/bsp/mcu/s7g2/bsp_hw_locks.o
                0x1ffe0084                g_hw_lock_DAAD_0U_0U
 .hw_lock.DAC_0U_0U
                0x1ffe0085        0x1 ./synergy/ssp/src/bsp/mcu/s7g2/bsp_hw_locks.o
                0x1ffe0085                g_hw_lock_DAC_0U_0U
 .hw_lock.DAC_0U_1U
                0x1ffe0086        0x1 ./synergy/ssp/src/bsp/mcu/s7g2/bsp_hw_locks.o
                0x1ffe0086                g_hw_lock_DAC_0U_1U
 .hw_lock.DMAC_0U_0U
                0x1ffe0087        0x1 ./synergy/ssp/src/bsp/mcu/s7g2/bsp_hw_locks.o
                0x1ffe0087                g_hw_lock_DMAC_0U_0U
 .hw_lock.DMAC_0U_1U
                0x1ffe0088        0x1 ./synergy/ssp/src/bsp/mcu/s7g2/bsp_hw_locks.o
                0x1ffe0088                g_hw_lock_DMAC_0U_1U
 .hw_lock.DMAC_0U_2U
                0x1ffe0089        0x1 ./synergy/ssp/src/bsp/mcu/s7g2/bsp_hw_locks.o
                0x1ffe0089                g_hw_lock_DMAC_0U_2U
 .hw_lock.DMAC_0U_3U
                0x1ffe008a        0x1 ./synergy/ssp/src/bsp/mcu/s7g2/bsp_hw_locks.o
                0x1ffe008a                g_hw_lock_DMAC_0U_3U
 .hw_lock.DMAC_0U_4U
                0x1ffe008b        0x1 ./synergy/ssp/src/bsp/mcu/s7g2/bsp_hw_locks.o
                0x1ffe008b                g_hw_lock_DMAC_0U_4U
 .hw_lock.DMAC_0U_5U
                0x1ffe008c        0x1 ./synergy/ssp/src/bsp/mcu/s7g2/bsp_hw_locks.o
                0x1ffe008c                g_hw_lock_DMAC_0U_5U
 .hw_lock.DMAC_0U_6U
                0x1ffe008d        0x1 ./synergy/ssp/src/bsp/mcu/s7g2/bsp_hw_locks.o
                0x1ffe008d                g_hw_lock_DMAC_0U_6U
 .hw_lock.DMAC_0U_7U
                0x1ffe008e        0x1 ./synergy/ssp/src/bsp/mcu/s7g2/bsp_hw_locks.o
                0x1ffe008e                g_hw_lock_DMAC_0U_7U
 .hw_lock.DOC_0U_0U
                0x1ffe008f        0x1 ./synergy/ssp/src/bsp/mcu/s7g2/bsp_hw_locks.o
                0x1ffe008f                g_hw_lock_DOC_0U_0U
 .hw_lock.DRW_0U_0U
                0x1ffe0090        0x1 ./synergy/ssp/src/bsp/mcu/s7g2/bsp_hw_locks.o
                0x1ffe0090                g_hw_lock_DRW_0U_0U
 .hw_lock.DTC_0U_0U
                0x1ffe0091        0x1 ./synergy/ssp/src/bsp/mcu/s7g2/bsp_hw_locks.o
                0x1ffe0091                g_hw_lock_DTC_0U_0U
 .hw_lock.ELC_0U_0U
                0x1ffe0092        0x1 ./synergy/ssp/src/bsp/mcu/s7g2/bsp_hw_locks.o
                0x1ffe0092                g_hw_lock_ELC_0U_0U
 .hw_lock.EPTPC_0U_0U
                0x1ffe0093        0x1 ./synergy/ssp/src/bsp/mcu/s7g2/bsp_hw_locks.o
                0x1ffe0093                g_hw_lock_EPTPC_0U_0U
 .hw_lock.ETHER_0U_0U
                0x1ffe0094        0x1 ./synergy/ssp/src/bsp/mcu/s7g2/bsp_hw_locks.o
                0x1ffe0094                g_hw_lock_ETHER_0U_0U
 .hw_lock.ETHER_0U_1U
                0x1ffe0095        0x1 ./synergy/ssp/src/bsp/mcu/s7g2/bsp_hw_locks.o
                0x1ffe0095                g_hw_lock_ETHER_0U_1U
 .hw_lock.FCU_0U_0U
                0x1ffe0096        0x1 ./synergy/ssp/src/bsp/mcu/s7g2/bsp_hw_locks.o
                0x1ffe0096                g_hw_lock_FCU_0U_0U
 .hw_lock.GLCDC_0U_0U
                0x1ffe0097        0x1 ./synergy/ssp/src/bsp/mcu/s7g2/bsp_hw_locks.o
                0x1ffe0097                g_hw_lock_GLCDC_0U_0U
 .hw_lock.GPT_0U_0U
                0x1ffe0098        0x1 ./synergy/ssp/src/bsp/mcu/s7g2/bsp_hw_locks.o
                0x1ffe0098                g_hw_lock_GPT_0U_0U
 .hw_lock.GPT_0U_10U
                0x1ffe0099        0x1 ./synergy/ssp/src/bsp/mcu/s7g2/bsp_hw_locks.o
                0x1ffe0099                g_hw_lock_GPT_0U_10U
 .hw_lock.GPT_0U_11U
                0x1ffe009a        0x1 ./synergy/ssp/src/bsp/mcu/s7g2/bsp_hw_locks.o
                0x1ffe009a                g_hw_lock_GPT_0U_11U
 .hw_lock.GPT_0U_12U
                0x1ffe009b        0x1 ./synergy/ssp/src/bsp/mcu/s7g2/bsp_hw_locks.o
                0x1ffe009b                g_hw_lock_GPT_0U_12U
 .hw_lock.GPT_0U_13U
                0x1ffe009c        0x1 ./synergy/ssp/src/bsp/mcu/s7g2/bsp_hw_locks.o
                0x1ffe009c                g_hw_lock_GPT_0U_13U
 .hw_lock.GPT_0U_1U
                0x1ffe009d        0x1 ./synergy/ssp/src/bsp/mcu/s7g2/bsp_hw_locks.o
                0x1ffe009d                g_hw_lock_GPT_0U_1U
 .hw_lock.GPT_0U_2U
                0x1ffe009e        0x1 ./synergy/ssp/src/bsp/mcu/s7g2/bsp_hw_locks.o
                0x1ffe009e                g_hw_lock_GPT_0U_2U
 .hw_lock.GPT_0U_3U
                0x1ffe009f        0x1 ./synergy/ssp/src/bsp/mcu/s7g2/bsp_hw_locks.o
                0x1ffe009f                g_hw_lock_GPT_0U_3U
 .hw_lock.GPT_0U_4U
                0x1ffe00a0        0x1 ./synergy/ssp/src/bsp/mcu/s7g2/bsp_hw_locks.o
                0x1ffe00a0                g_hw_lock_GPT_0U_4U
 .hw_lock.GPT_0U_5U
                0x1ffe00a1        0x1 ./synergy/ssp/src/bsp/mcu/s7g2/bsp_hw_locks.o
                0x1ffe00a1                g_hw_lock_GPT_0U_5U
 .hw_lock.GPT_0U_6U
                0x1ffe00a2        0x1 ./synergy/ssp/src/bsp/mcu/s7g2/bsp_hw_locks.o
                0x1ffe00a2                g_hw_lock_GPT_0U_6U
 .hw_lock.GPT_0U_7U
                0x1ffe00a3        0x1 ./synergy/ssp/src/bsp/mcu/s7g2/bsp_hw_locks.o
                0x1ffe00a3                g_hw_lock_GPT_0U_7U
 .hw_lock.GPT_0U_8U
                0x1ffe00a4        0x1 ./synergy/ssp/src/bsp/mcu/s7g2/bsp_hw_locks.o
                0x1ffe00a4                g_hw_lock_GPT_0U_8U
 .hw_lock.GPT_0U_9U
                0x1ffe00a5        0x1 ./synergy/ssp/src/bsp/mcu/s7g2/bsp_hw_locks.o
                0x1ffe00a5                g_hw_lock_GPT_0U_9U
 .hw_lock.ICU_0U_0U
                0x1ffe00a6        0x1 ./synergy/ssp/src/bsp/mcu/s7g2/bsp_hw_locks.o
                0x1ffe00a6                g_hw_lock_ICU_0U_0U
 .hw_lock.ICU_0U_10U
                0x1ffe00a7        0x1 ./synergy/ssp/src/bsp/mcu/s7g2/bsp_hw_locks.o
                0x1ffe00a7                g_hw_lock_ICU_0U_10U
 .hw_lock.ICU_0U_11U
                0x1ffe00a8        0x1 ./synergy/ssp/src/bsp/mcu/s7g2/bsp_hw_locks.o
                0x1ffe00a8                g_hw_lock_ICU_0U_11U
 .hw_lock.ICU_0U_12U
                0x1ffe00a9        0x1 ./synergy/ssp/src/bsp/mcu/s7g2/bsp_hw_locks.o
                0x1ffe00a9                g_hw_lock_ICU_0U_12U
 .hw_lock.ICU_0U_13U
                0x1ffe00aa        0x1 ./synergy/ssp/src/bsp/mcu/s7g2/bsp_hw_locks.o
                0x1ffe00aa                g_hw_lock_ICU_0U_13U
 .hw_lock.ICU_0U_14U
                0x1ffe00ab        0x1 ./synergy/ssp/src/bsp/mcu/s7g2/bsp_hw_locks.o
                0x1ffe00ab                g_hw_lock_ICU_0U_14U
 .hw_lock.ICU_0U_15U
                0x1ffe00ac        0x1 ./synergy/ssp/src/bsp/mcu/s7g2/bsp_hw_locks.o
                0x1ffe00ac                g_hw_lock_ICU_0U_15U
 .hw_lock.ICU_0U_1U
                0x1ffe00ad        0x1 ./synergy/ssp/src/bsp/mcu/s7g2/bsp_hw_locks.o
                0x1ffe00ad                g_hw_lock_ICU_0U_1U
 .hw_lock.ICU_0U_2U
                0x1ffe00ae        0x1 ./synergy/ssp/src/bsp/mcu/s7g2/bsp_hw_locks.o
                0x1ffe00ae                g_hw_lock_ICU_0U_2U
 .hw_lock.ICU_0U_3U
                0x1ffe00af        0x1 ./synergy/ssp/src/bsp/mcu/s7g2/bsp_hw_locks.o
                0x1ffe00af                g_hw_lock_ICU_0U_3U
 .hw_lock.ICU_0U_4U
                0x1ffe00b0        0x1 ./synergy/ssp/src/bsp/mcu/s7g2/bsp_hw_locks.o
                0x1ffe00b0                g_hw_lock_ICU_0U_4U
 .hw_lock.ICU_0U_5U
                0x1ffe00b1        0x1 ./synergy/ssp/src/bsp/mcu/s7g2/bsp_hw_locks.o
                0x1ffe00b1                g_hw_lock_ICU_0U_5U
 .hw_lock.ICU_0U_6U
                0x1ffe00b2        0x1 ./synergy/ssp/src/bsp/mcu/s7g2/bsp_hw_locks.o
                0x1ffe00b2                g_hw_lock_ICU_0U_6U
 .hw_lock.ICU_0U_7U
                0x1ffe00b3        0x1 ./synergy/ssp/src/bsp/mcu/s7g2/bsp_hw_locks.o
                0x1ffe00b3                g_hw_lock_ICU_0U_7U
 .hw_lock.ICU_0U_8U
                0x1ffe00b4        0x1 ./synergy/ssp/src/bsp/mcu/s7g2/bsp_hw_locks.o
                0x1ffe00b4                g_hw_lock_ICU_0U_8U
 .hw_lock.ICU_0U_9U
                0x1ffe00b5        0x1 ./synergy/ssp/src/bsp/mcu/s7g2/bsp_hw_locks.o
                0x1ffe00b5                g_hw_lock_ICU_0U_9U
 .hw_lock.IIC_0U_0U
                0x1ffe00b6        0x1 ./synergy/ssp/src/bsp/mcu/s7g2/bsp_hw_locks.o
                0x1ffe00b6                g_hw_lock_IIC_0U_0U
 .hw_lock.IIC_0U_1U
                0x1ffe00b7        0x1 ./synergy/ssp/src/bsp/mcu/s7g2/bsp_hw_locks.o
                0x1ffe00b7                g_hw_lock_IIC_0U_1U
 .hw_lock.IIC_0U_2U
                0x1ffe00b8        0x1 ./synergy/ssp/src/bsp/mcu/s7g2/bsp_hw_locks.o
                0x1ffe00b8                g_hw_lock_IIC_0U_2U
 .hw_lock.IRDA_0U_0U
                0x1ffe00b9        0x1 ./synergy/ssp/src/bsp/mcu/s7g2/bsp_hw_locks.o
                0x1ffe00b9                g_hw_lock_IRDA_0U_0U
 .hw_lock.IWDT_0U_0U
                0x1ffe00ba        0x1 ./synergy/ssp/src/bsp/mcu/s7g2/bsp_hw_locks.o
                0x1ffe00ba                g_hw_lock_IWDT_0U_0U
 .hw_lock.JPEG_0U_0U
                0x1ffe00bb        0x1 ./synergy/ssp/src/bsp/mcu/s7g2/bsp_hw_locks.o
                0x1ffe00bb                g_hw_lock_JPEG_0U_0U
 .hw_lock.KEY_0U_0U
                0x1ffe00bc        0x1 ./synergy/ssp/src/bsp/mcu/s7g2/bsp_hw_locks.o
                0x1ffe00bc                g_hw_lock_KEY_0U_0U
 .hw_lock.LPM_1U_0U
                0x1ffe00bd        0x1 ./synergy/ssp/src/bsp/mcu/s7g2/bsp_hw_locks.o
                0x1ffe00bd                g_hw_lock_LPM_1U_0U
 .hw_lock.LVD_0U_0U
                0x1ffe00be        0x1 ./synergy/ssp/src/bsp/mcu/s7g2/bsp_hw_locks.o
                0x1ffe00be                g_hw_lock_LVD_0U_0U
 .hw_lock.LVD_0U_1U
                0x1ffe00bf        0x1 ./synergy/ssp/src/bsp/mcu/s7g2/bsp_hw_locks.o
                0x1ffe00bf                g_hw_lock_LVD_0U_1U
 .hw_lock.MMF_0U_0U
                0x1ffe00c0        0x1 ./synergy/ssp/src/bsp/mcu/s7g2/bsp_hw_locks.o
                0x1ffe00c0                g_hw_lock_MMF_0U_0U
 .hw_lock.MPU_0U_0U
                0x1ffe00c1        0x1 ./synergy/ssp/src/bsp/mcu/s7g2/bsp_hw_locks.o
                0x1ffe00c1                g_hw_lock_MPU_0U_0U
 .hw_lock.OPS_0U_0U
                0x1ffe00c2        0x1 ./synergy/ssp/src/bsp/mcu/s7g2/bsp_hw_locks.o
                0x1ffe00c2                g_hw_lock_OPS_0U_0U
 .hw_lock.PDC_0U_0U
                0x1ffe00c3        0x1 ./synergy/ssp/src/bsp/mcu/s7g2/bsp_hw_locks.o
                0x1ffe00c3                g_hw_lock_PDC_0U_0U
 .hw_lock.POEG_0U_0U
                0x1ffe00c4        0x1 ./synergy/ssp/src/bsp/mcu/s7g2/bsp_hw_locks.o
                0x1ffe00c4                g_hw_lock_POEG_0U_0U
 .hw_lock.POEG_0U_1U
                0x1ffe00c5        0x1 ./synergy/ssp/src/bsp/mcu/s7g2/bsp_hw_locks.o
                0x1ffe00c5                g_hw_lock_POEG_0U_1U
 .hw_lock.POEG_0U_2U
                0x1ffe00c6        0x1 ./synergy/ssp/src/bsp/mcu/s7g2/bsp_hw_locks.o
                0x1ffe00c6                g_hw_lock_POEG_0U_2U
 .hw_lock.POEG_0U_3U
                0x1ffe00c7        0x1 ./synergy/ssp/src/bsp/mcu/s7g2/bsp_hw_locks.o
                0x1ffe00c7                g_hw_lock_POEG_0U_3U
 .hw_lock.QSPI_0U_0U
                0x1ffe00c8        0x1 ./synergy/ssp/src/bsp/mcu/s7g2/bsp_hw_locks.o
                0x1ffe00c8                g_hw_lock_QSPI_0U_0U
 .hw_lock.RTC_0U_0U
                0x1ffe00c9        0x1 ./synergy/ssp/src/bsp/mcu/s7g2/bsp_hw_locks.o
                0x1ffe00c9                g_hw_lock_RTC_0U_0U
 .hw_lock.SCE_0U_0U
                0x1ffe00ca        0x1 ./synergy/ssp/src/bsp/mcu/s7g2/bsp_hw_locks.o
                0x1ffe00ca                g_hw_lock_SCE_0U_0U
 .hw_lock.SCI_0U_0U
                0x1ffe00cb        0x1 ./synergy/ssp/src/bsp/mcu/s7g2/bsp_hw_locks.o
                0x1ffe00cb                g_hw_lock_SCI_0U_0U
 .hw_lock.SCI_0U_1U
                0x1ffe00cc        0x1 ./synergy/ssp/src/bsp/mcu/s7g2/bsp_hw_locks.o
                0x1ffe00cc                g_hw_lock_SCI_0U_1U
 .hw_lock.SCI_0U_2U
                0x1ffe00cd        0x1 ./synergy/ssp/src/bsp/mcu/s7g2/bsp_hw_locks.o
                0x1ffe00cd                g_hw_lock_SCI_0U_2U
 .hw_lock.SCI_0U_3U
                0x1ffe00ce        0x1 ./synergy/ssp/src/bsp/mcu/s7g2/bsp_hw_locks.o
                0x1ffe00ce                g_hw_lock_SCI_0U_3U
 .hw_lock.SCI_0U_4U
                0x1ffe00cf        0x1 ./synergy/ssp/src/bsp/mcu/s7g2/bsp_hw_locks.o
                0x1ffe00cf                g_hw_lock_SCI_0U_4U
 .hw_lock.SCI_0U_5U
                0x1ffe00d0        0x1 ./synergy/ssp/src/bsp/mcu/s7g2/bsp_hw_locks.o
                0x1ffe00d0                g_hw_lock_SCI_0U_5U
 .hw_lock.SCI_0U_6U
                0x1ffe00d1        0x1 ./synergy/ssp/src/bsp/mcu/s7g2/bsp_hw_locks.o
                0x1ffe00d1                g_hw_lock_SCI_0U_6U
 .hw_lock.SCI_0U_7U
                0x1ffe00d2        0x1 ./synergy/ssp/src/bsp/mcu/s7g2/bsp_hw_locks.o
                0x1ffe00d2                g_hw_lock_SCI_0U_7U
 .hw_lock.SCI_0U_8U
                0x1ffe00d3        0x1 ./synergy/ssp/src/bsp/mcu/s7g2/bsp_hw_locks.o
                0x1ffe00d3                g_hw_lock_SCI_0U_8U
 .hw_lock.SCI_0U_9U
                0x1ffe00d4        0x1 ./synergy/ssp/src/bsp/mcu/s7g2/bsp_hw_locks.o
                0x1ffe00d4                g_hw_lock_SCI_0U_9U
 .hw_lock.SDHIMMC_0U_0U
                0x1ffe00d5        0x1 ./synergy/ssp/src/bsp/mcu/s7g2/bsp_hw_locks.o
                0x1ffe00d5                g_hw_lock_SDHIMMC_0U_0U
 .hw_lock.SDHIMMC_0U_1U
                0x1ffe00d6        0x1 ./synergy/ssp/src/bsp/mcu/s7g2/bsp_hw_locks.o
                0x1ffe00d6                g_hw_lock_SDHIMMC_0U_1U
 .hw_lock.SPI_0U_0U
                0x1ffe00d7        0x1 ./synergy/ssp/src/bsp/mcu/s7g2/bsp_hw_locks.o
                0x1ffe00d7                g_hw_lock_SPI_0U_0U
 .hw_lock.SPI_0U_1U
                0x1ffe00d8        0x1 ./synergy/ssp/src/bsp/mcu/s7g2/bsp_hw_locks.o
                0x1ffe00d8                g_hw_lock_SPI_0U_1U
 .hw_lock.SRC_0U_0U
                0x1ffe00d9        0x1 ./synergy/ssp/src/bsp/mcu/s7g2/bsp_hw_locks.o
                0x1ffe00d9                g_hw_lock_SRC_0U_0U
 .hw_lock.SSI_0U_0U
                0x1ffe00da        0x1 ./synergy/ssp/src/bsp/mcu/s7g2/bsp_hw_locks.o
                0x1ffe00da                g_hw_lock_SSI_0U_0U
 .hw_lock.SSI_0U_1U
                0x1ffe00db        0x1 ./synergy/ssp/src/bsp/mcu/s7g2/bsp_hw_locks.o
                0x1ffe00db                g_hw_lock_SSI_0U_1U
 .hw_lock.TSN_0U_0U
                0x1ffe00dc        0x1 ./synergy/ssp/src/bsp/mcu/s7g2/bsp_hw_locks.o
                0x1ffe00dc                g_hw_lock_TSN_0U_0U
 .hw_lock.USB_0U_0U
                0x1ffe00dd        0x1 ./synergy/ssp/src/bsp/mcu/s7g2/bsp_hw_locks.o
                0x1ffe00dd                g_hw_lock_USB_0U_0U
 .hw_lock.USB_1U_0U
                0x1ffe00de        0x1 ./synergy/ssp/src/bsp/mcu/s7g2/bsp_hw_locks.o
                0x1ffe00de                g_hw_lock_USB_1U_0U
 .hw_lock.WDT_0U_0U
                0x1ffe00df        0x1 ./synergy/ssp/src/bsp/mcu/s7g2/bsp_hw_locks.o
                0x1ffe00df                g_hw_lock_WDT_0U_0U
                0x1ffe00e0                __Lock_End = .
                0x1ffe00e0                . = ALIGN (0x4)
                0x1ffe00e0                __data_end__ = .
                0x0000006c                __Lock_Size = (__Lock_End - __Lock_Start)

.igot.plt       0x1ffe00e0        0x0 load address 0x000052bc
 .igot.plt      0x1ffe00e0        0x0 c:/renesas/synergy/e2studio_v2022-04_ssp_v2.3.0/toolchains/gcc_arm/gcc-arm-none-eabi-10.3-2021.10/bin/../lib/gcc/arm-none-eabi/10.3.1/thumb/v7e-m+fp/hard/crtbegin.o

.qspi_flash     0x60000000        0x0
                0x60000000                __qspi_flash_start__ = .
 *(.qspi_flash*)
                0x60000000                __qspi_flash_end__ = .
                0x00000000                __qspi_flash_code_size__ = (__qspi_flash_end__ - __qspi_flash_start__)
                0x000052bc                __qspi_flash_code_addr__ = (__etext + (__data_end__ - __data_start__))

.qspi_non_retentive
                0x60000000        0x0 load address 0x000052bc
                0x60000000                __qspi_non_retentive_start__ = .
 *(.qspi_non_retentive*)
                0x60000000                __qspi_non_retentive_end__ = .
                0x00000000                __qspi_non_retentive_size__ = (__qspi_non_retentive_end__ - __qspi_non_retentive_start__)
                0x04000000                __qspi_region_max_size__ = 0x4000000
                0x60000000                __qspi_region_start_address__ = __qspi_flash_start__
                0x64000000                __qspi_region_end_address__ = (__qspi_flash_start__ + __qspi_region_max_size__)

.noinit         0x1ffe00e0       0x44
                0x1ffe00e0                . = ALIGN (0x4)
                0x1ffe00e0                __noinit_start = .
 *(.noinit*)
 .noinit        0x1ffe00e0       0x14 ./synergy/ssp/src/driver/r_ioport/r_ioport.o
 .noinit        0x1ffe00f4       0x20 ./synergy/ssp/src/driver/r_cgc/r_cgc.o
                0x1ffe00f4                gp_cgc_feature
 *fill*         0x1ffe0114        0x4 
 .noinit        0x1ffe0118        0x8 ./synergy/ssp/src/bsp/cmsis/Device/RENESAS/S7G2/Source/system_S7G2.o
 .noinit        0x1ffe0120        0x4 C:\Users\wesle\e2_studio\workspace\hello_world_basic\synergy\ssp\src\driver\r_fmi\libs\libfmi_cm4_s7g2_gcc.a(r_fmi.o)
                0x1ffe0124                __noinit_end = .

.bss            0x1ffe0124      0x12c
                0x1ffe0124                . = ALIGN (0x4)
                0x1ffe0124                __bss_start__ = .
 *(.bss*)
 .bss           0x1ffe0124       0x1c c:/renesas/synergy/e2studio_v2022-04_ssp_v2.3.0/toolchains/gcc_arm/gcc-arm-none-eabi-10.3-2021.10/bin/../lib/gcc/arm-none-eabi/10.3.1/thumb/v7e-m+fp/hard/crtbegin.o
 .bss.g_protect_pfswe_counter
                0x1ffe0140        0x2 ./synergy/ssp/src/driver/r_ioport/r_ioport.o
                0x1ffe0140                g_protect_pfswe_counter
 *fill*         0x1ffe0142        0x2 
 .bss.gp_elc_reg
                0x1ffe0144        0x4 ./synergy/ssp/src/driver/r_elc/r_elc.o
 .bss.g_bsp_group_irq_sources
                0x1ffe0148       0x30 ./synergy/ssp/src/bsp/mcu/s7g2/bsp_group_irq.o
 .bss.g_vector_information_size
                0x1ffe0178        0x4 ./synergy/ssp/src/bsp/mcu/all/bsp_irq.o
                0x1ffe0178                g_vector_information_size
 .bss.g_bsp_lock_lookup_size
                0x1ffe017c        0x4 ./synergy/ssp/src/bsp/mcu/all/bsp_locking.o
 .bss.gp_bsp_lock_lookup
                0x1ffe0180        0x4 ./synergy/ssp/src/bsp/mcu/all/bsp_locking.o
 .bss.gp_bsp_locks
                0x1ffe0184        0x4 ./synergy/ssp/src/bsp/mcu/all/bsp_locking.o
 .bss.g_protect_counters
                0x1ffe0188        0x6 ./synergy/ssp/src/bsp/mcu/all/bsp_register_protection.o
 *fill*         0x1ffe018e        0x2 
 .bss.current_heap_end.0
                0x1ffe0190        0x4 ./synergy/ssp/src/bsp/mcu/all/bsp_sbrk.o
 .bss.SystemCoreClock
                0x1ffe0194        0x4 ./synergy/ssp/src/bsp/cmsis/Device/RENESAS/S7G2/Source/system_S7G2.o
                0x1ffe0194                SystemCoreClock
 .bss.device_characteristics
                0x1ffe0198        0x3 ./synergy/board/s7g2_sk/bsp_qspi.o
 *fill*         0x1ffe019b        0x1 
 .bss.flag_status2
                0x1ffe019c        0x1 ./synergy/board/s7g2_sk/bsp_qspi.o
 *fill*         0x1ffe019d        0x3 
 .bss.__malloc_free_list
                0x1ffe01a0        0x4 c:/renesas/synergy/e2studio_v2022-04_ssp_v2.3.0/toolchains/gcc_arm/gcc-arm-none-eabi-10.3-2021.10/bin/../lib/gcc/arm-none-eabi/10.3.1/../../../../arm-none-eabi/lib/thumb/v7e-m+fp/hard\libg_nano.a(lib_a-nano-mallocr.o)
                0x1ffe01a0                __malloc_free_list
 .bss.__malloc_sbrk_start
                0x1ffe01a4        0x4 c:/renesas/synergy/e2studio_v2022-04_ssp_v2.3.0/toolchains/gcc_arm/gcc-arm-none-eabi-10.3-2021.10/bin/../lib/gcc/arm-none-eabi/10.3.1/../../../../arm-none-eabi/lib/thumb/v7e-m+fp/hard\libg_nano.a(lib_a-nano-mallocr.o)
                0x1ffe01a4                __malloc_sbrk_start
 .bss.__lock___malloc_recursive_mutex
                0x1ffe01a8        0x1 c:/renesas/synergy/e2studio_v2022-04_ssp_v2.3.0/toolchains/gcc_arm/gcc-arm-none-eabi-10.3-2021.10/bin/../lib/gcc/arm-none-eabi/10.3.1/../../../../arm-none-eabi/lib/thumb/v7e-m+fp/hard\libg_nano.a(lib_a-lock.o)
                0x1ffe01a8                __lock___malloc_recursive_mutex
 .bss.__lock___sfp_recursive_mutex
                0x1ffe01a9        0x1 c:/renesas/synergy/e2studio_v2022-04_ssp_v2.3.0/toolchains/gcc_arm/gcc-arm-none-eabi-10.3-2021.10/bin/../lib/gcc/arm-none-eabi/10.3.1/../../../../arm-none-eabi/lib/thumb/v7e-m+fp/hard\libg_nano.a(lib_a-lock.o)
                0x1ffe01a9                __lock___sfp_recursive_mutex
 .bss.__lock___sinit_recursive_mutex
                0x1ffe01aa        0x1 c:/renesas/synergy/e2studio_v2022-04_ssp_v2.3.0/toolchains/gcc_arm/gcc-arm-none-eabi-10.3-2021.10/bin/../lib/gcc/arm-none-eabi/10.3.1/../../../../arm-none-eabi/lib/thumb/v7e-m+fp/hard\libg_nano.a(lib_a-lock.o)
                0x1ffe01aa                __lock___sinit_recursive_mutex
 *fill*         0x1ffe01ab        0x1 
 .bss.errno     0x1ffe01ac        0x4 c:/renesas/synergy/e2studio_v2022-04_ssp_v2.3.0/toolchains/gcc_arm/gcc-arm-none-eabi-10.3-2021.10/bin/../lib/gcc/arm-none-eabi/10.3.1/../../../../arm-none-eabi/lib/thumb/v7e-m+fp/hard\libg_nano.a(lib_a-reent.o)
                0x1ffe01ac                errno
 .bss.openfiles
                0x1ffe01b0       0xa0 c:/renesas/synergy/e2studio_v2022-04_ssp_v2.3.0/toolchains/gcc_arm/gcc-arm-none-eabi-10.3-2021.10/bin/../lib/gcc/arm-none-eabi/10.3.1/../../../../arm-none-eabi/lib/thumb/v7e-m+fp/hard\librdimon_nano.a(rdimon-syscalls.o)
 *(COMMON)
                0x1ffe0250                . = ALIGN (0x4)
                0x1ffe0250                __bss_end__ = .

.heap           0x1ffe0250     0x1000
                0x1ffe0250                . = ALIGN (0x8)
 *(.heap_d1)
                0x1ffe0250                . = ALIGN (0x8)
                0x1ffe0250                __HeapBase = .
                0x1ffe0250                __end__ = .
                0x1ffe0250                end = __end__
 *(.heap*)
 .heap          0x1ffe0250     0x1000 ./synergy/ssp/src/bsp/cmsis/Device/RENESAS/S7G2/Source/startup_S7G2.o
                0x1ffe1250                __HeapLimit = .

.stack_dummy    0x1ffe1250      0x800
                0x1ffe1250                . = ALIGN (0x8)
                0x1ffe1250                __StackLimit = .
 *(.stack)
 .stack         0x1ffe1250      0x800 ./synergy/ssp/src/bsp/cmsis/Device/RENESAS/S7G2/Source/startup_S7G2.o
                0x1ffe1a50                __StackTop = .
 *(.stack*)
                0x1ffe1a50                __StackTopAll = .
                0x1ffe1a50                PROVIDE (__stack = __StackTopAll)
                0x1ffe1a50                __RAM_segment_used_end__ = ALIGN (__StackTopAll, 0x4)

.dflash         0x40100000        0x0
                0x40100000                __Data_Flash_Start = .
 *(.dflash*)
                0x40100000                __Data_Flash_End = .

.sdram          0x90000000        0x0
                0x90000000                __SDRAM_Start = .
 *(.sdram*)
 *(.frame*)
                0x90000000                __SDRAM_End = .

.id_code_1      0x40120050       0x10
                0x40120050                __ID_Codes_Start = .
 *(.id_code_1*)
 .id_code_1     0x40120050       0x10 ./synergy/ssp/src/bsp/mcu/s7g2/bsp_rom_registers.o
                0x40120060                __ID_Codes_End = .
OUTPUT(hello_world_basic.elf elf32-littlearm)
LOAD linker stubs

.rel.dyn        0x40120060        0x0
 .rel.iplt      0x40120060        0x0 c:/renesas/synergy/e2studio_v2022-04_ssp_v2.3.0/toolchains/gcc_arm/gcc-arm-none-eabi-10.3-2021.10/bin/../lib/gcc/arm-none-eabi/10.3.1/thumb/v7e-m+fp/hard/crtbegin.o

.ARM.attributes
                0x00000000       0x30
 .ARM.attributes
                0x00000000       0x1e c:/renesas/synergy/e2studio_v2022-04_ssp_v2.3.0/toolchains/gcc_arm/gcc-arm-none-eabi-10.3-2021.10/bin/../lib/gcc/arm-none-eabi/10.3.1/thumb/v7e-m+fp/hard/crti.o
 .ARM.attributes
                0x0000001e       0x34 c:/renesas/synergy/e2studio_v2022-04_ssp_v2.3.0/toolchains/gcc_arm/gcc-arm-none-eabi-10.3-2021.10/bin/../lib/gcc/arm-none-eabi/10.3.1/thumb/v7e-m+fp/hard/crtbegin.o
 .ARM.attributes
                0x00000052       0x34 ./synergy/ssp/src/driver/r_ioport/r_ioport.o
 .ARM.attributes
                0x00000086       0x34 ./synergy/ssp/src/driver/r_elc/r_elc.o
 .ARM.attributes
                0x000000ba       0x34 ./synergy/ssp/src/driver/r_cgc/r_cgc.o
 .ARM.attributes
                0x000000ee       0x34 ./synergy/ssp/src/bsp/mcu/s7g2/bsp_cache.o
 .ARM.attributes
                0x00000122       0x34 ./synergy/ssp/src/bsp/mcu/s7g2/bsp_clocks.o
 .ARM.attributes
                0x00000156       0x34 ./synergy/ssp/src/bsp/mcu/s7g2/bsp_feature.o
 .ARM.attributes
                0x0000018a       0x34 ./synergy/ssp/src/bsp/mcu/s7g2/bsp_group_irq.o
 .ARM.attributes
                0x000001be       0x34 ./synergy/ssp/src/bsp/mcu/s7g2/bsp_hw_locks.o
 .ARM.attributes
                0x000001f2       0x34 ./synergy/ssp/src/bsp/mcu/s7g2/bsp_module_stop.o
 .ARM.attributes
                0x00000226       0x34 ./synergy/ssp/src/bsp/mcu/s7g2/bsp_rom_registers.o
 .ARM.attributes
                0x0000025a       0x34 ./synergy/ssp/src/bsp/mcu/all/bsp_common.o
 .ARM.attributes
                0x0000028e       0x34 ./synergy/ssp/src/bsp/mcu/all/bsp_common_leds.o
 .ARM.attributes
                0x000002c2       0x34 ./synergy/ssp/src/bsp/mcu/all/bsp_delay.o
 .ARM.attributes
                0x000002f6       0x34 ./synergy/ssp/src/bsp/mcu/all/bsp_irq.o
 .ARM.attributes
                0x0000032a       0x34 ./synergy/ssp/src/bsp/mcu/all/bsp_locking.o
 .ARM.attributes
                0x0000035e       0x34 ./synergy/ssp/src/bsp/mcu/all/bsp_register_protection.o
 .ARM.attributes
                0x00000392       0x34 ./synergy/ssp/src/bsp/mcu/all/bsp_sbrk.o
 .ARM.attributes
                0x000003c6       0x34 ./synergy/ssp/src/bsp/cmsis/Device/RENESAS/S7G2/Source/startup_S7G2.o
 .ARM.attributes
                0x000003fa       0x34 ./synergy/ssp/src/bsp/cmsis/Device/RENESAS/S7G2/Source/system_S7G2.o
 .ARM.attributes
                0x0000042e       0x34 ./synergy/board/s7g2_sk/bsp_init.o
 .ARM.attributes
                0x00000462       0x34 ./synergy/board/s7g2_sk/bsp_leds.o
 .ARM.attributes
                0x00000496       0x34 ./synergy/board/s7g2_sk/bsp_qspi.o
 .ARM.attributes
                0x000004ca       0x34 ./src/synergy_gen/common_data.o
 .ARM.attributes
                0x000004fe       0x34 ./src/synergy_gen/main.o
 .ARM.attributes
                0x00000532       0x34 ./src/synergy_gen/pin_data.o
 .ARM.attributes
                0x00000566       0x34 ./src/hal_entry.o
 .ARM.attributes
                0x0000059a       0x34 C:\Users\wesle\e2_studio\workspace\hello_world_basic\synergy\ssp\src\driver\r_fmi\libs\libfmi_cm4_s7g2_gcc.a(r_fmi.o)
 .ARM.attributes
                0x000005ce       0x34 C:\Users\wesle\e2_studio\workspace\hello_world_basic\synergy\ssp\src\bsp\mcu\s7g2\libfmi_R7FS7G27H3A01CFC_gcc.a(bsp_fmi_R7FS7G27H3A01CFC.o)
 .ARM.attributes
                0x00000602       0x34 c:/renesas/synergy/e2studio_v2022-04_ssp_v2.3.0/toolchains/gcc_arm/gcc-arm-none-eabi-10.3-2021.10/bin/../lib/gcc/arm-none-eabi/10.3.1/../../../../arm-none-eabi/lib/thumb/v7e-m+fp/hard\libg_nano.a(lib_a-errno.o)
 .ARM.attributes
                0x00000636       0x34 c:/renesas/synergy/e2studio_v2022-04_ssp_v2.3.0/toolchains/gcc_arm/gcc-arm-none-eabi-10.3-2021.10/bin/../lib/gcc/arm-none-eabi/10.3.1/../../../../arm-none-eabi/lib/thumb/v7e-m+fp/hard\libg_nano.a(lib_a-impure.o)
 .ARM.attributes
                0x0000066a       0x34 c:/renesas/synergy/e2studio_v2022-04_ssp_v2.3.0/toolchains/gcc_arm/gcc-arm-none-eabi-10.3-2021.10/bin/../lib/gcc/arm-none-eabi/10.3.1/../../../../arm-none-eabi/lib/thumb/v7e-m+fp/hard\libg_nano.a(lib_a-memcpy-stub.o)
 .ARM.attributes
                0x0000069e       0x34 c:/renesas/synergy/e2studio_v2022-04_ssp_v2.3.0/toolchains/gcc_arm/gcc-arm-none-eabi-10.3-2021.10/bin/../lib/gcc/arm-none-eabi/10.3.1/../../../../arm-none-eabi/lib/thumb/v7e-m+fp/hard\libg_nano.a(lib_a-memset.o)
 .ARM.attributes
                0x000006d2       0x34 c:/renesas/synergy/e2studio_v2022-04_ssp_v2.3.0/toolchains/gcc_arm/gcc-arm-none-eabi-10.3-2021.10/bin/../lib/gcc/arm-none-eabi/10.3.1/../../../../arm-none-eabi/lib/thumb/v7e-m+fp/hard\libg_nano.a(lib_a-rand.o)
 .ARM.attributes
                0x00000706       0x34 c:/renesas/synergy/e2studio_v2022-04_ssp_v2.3.0/toolchains/gcc_arm/gcc-arm-none-eabi-10.3-2021.10/bin/../lib/gcc/arm-none-eabi/10.3.1/../../../../arm-none-eabi/lib/thumb/v7e-m+fp/hard\libg_nano.a(lib_a-assert.o)
 .ARM.attributes
                0x0000073a       0x34 c:/renesas/synergy/e2studio_v2022-04_ssp_v2.3.0/toolchains/gcc_arm/gcc-arm-none-eabi-10.3-2021.10/bin/../lib/gcc/arm-none-eabi/10.3.1/../../../../arm-none-eabi/lib/thumb/v7e-m+fp/hard\libg_nano.a(lib_a-fprintf.o)
 .ARM.attributes
                0x0000076e       0x34 c:/renesas/synergy/e2studio_v2022-04_ssp_v2.3.0/toolchains/gcc_arm/gcc-arm-none-eabi-10.3-2021.10/bin/../lib/gcc/arm-none-eabi/10.3.1/../../../../arm-none-eabi/lib/thumb/v7e-m+fp/hard\libg_nano.a(lib_a-malloc.o)
 .ARM.attributes
                0x000007a2       0x34 c:/renesas/synergy/e2studio_v2022-04_ssp_v2.3.0/toolchains/gcc_arm/gcc-arm-none-eabi-10.3-2021.10/bin/../lib/gcc/arm-none-eabi/10.3.1/../../../../arm-none-eabi/lib/thumb/v7e-m+fp/hard\libg_nano.a(lib_a-nano-freer.o)
 .ARM.attributes
                0x000007d6       0x34 c:/renesas/synergy/e2studio_v2022-04_ssp_v2.3.0/toolchains/gcc_arm/gcc-arm-none-eabi-10.3-2021.10/bin/../lib/gcc/arm-none-eabi/10.3.1/../../../../arm-none-eabi/lib/thumb/v7e-m+fp/hard\libg_nano.a(lib_a-nano-mallocr.o)
 .ARM.attributes
                0x0000080a       0x34 c:/renesas/synergy/e2studio_v2022-04_ssp_v2.3.0/toolchains/gcc_arm/gcc-arm-none-eabi-10.3-2021.10/bin/../lib/gcc/arm-none-eabi/10.3.1/../../../../arm-none-eabi/lib/thumb/v7e-m+fp/hard\libg_nano.a(lib_a-nano-vfprintf.o)
 .ARM.attributes
                0x0000083e       0x34 c:/renesas/synergy/e2studio_v2022-04_ssp_v2.3.0/toolchains/gcc_arm/gcc-arm-none-eabi-10.3-2021.10/bin/../lib/gcc/arm-none-eabi/10.3.1/../../../../arm-none-eabi/lib/thumb/v7e-m+fp/hard\libg_nano.a(lib_a-nano-vfprintf_i.o)
 .ARM.attributes
                0x00000872       0x34 c:/renesas/synergy/e2studio_v2022-04_ssp_v2.3.0/toolchains/gcc_arm/gcc-arm-none-eabi-10.3-2021.10/bin/../lib/gcc/arm-none-eabi/10.3.1/../../../../arm-none-eabi/lib/thumb/v7e-m+fp/hard\libg_nano.a(lib_a-sbrkr.o)
 .ARM.attributes
                0x000008a6       0x34 c:/renesas/synergy/e2studio_v2022-04_ssp_v2.3.0/toolchains/gcc_arm/gcc-arm-none-eabi-10.3-2021.10/bin/../lib/gcc/arm-none-eabi/10.3.1/../../../../arm-none-eabi/lib/thumb/v7e-m+fp/hard\libg_nano.a(lib_a-wbuf.o)
 .ARM.attributes
                0x000008da       0x34 c:/renesas/synergy/e2studio_v2022-04_ssp_v2.3.0/toolchains/gcc_arm/gcc-arm-none-eabi-10.3-2021.10/bin/../lib/gcc/arm-none-eabi/10.3.1/../../../../arm-none-eabi/lib/thumb/v7e-m+fp/hard\libg_nano.a(lib_a-wsetup.o)
 .ARM.attributes
                0x0000090e       0x34 c:/renesas/synergy/e2studio_v2022-04_ssp_v2.3.0/toolchains/gcc_arm/gcc-arm-none-eabi-10.3-2021.10/bin/../lib/gcc/arm-none-eabi/10.3.1/../../../../arm-none-eabi/lib/thumb/v7e-m+fp/hard\libg_nano.a(lib_a-abort.o)
 .ARM.attributes
                0x00000942       0x34 c:/renesas/synergy/e2studio_v2022-04_ssp_v2.3.0/toolchains/gcc_arm/gcc-arm-none-eabi-10.3-2021.10/bin/../lib/gcc/arm-none-eabi/10.3.1/../../../../arm-none-eabi/lib/thumb/v7e-m+fp/hard\libg_nano.a(lib_a-fflush.o)
 .ARM.attributes
                0x00000976       0x34 c:/renesas/synergy/e2studio_v2022-04_ssp_v2.3.0/toolchains/gcc_arm/gcc-arm-none-eabi-10.3-2021.10/bin/../lib/gcc/arm-none-eabi/10.3.1/../../../../arm-none-eabi/lib/thumb/v7e-m+fp/hard\libg_nano.a(lib_a-findfp.o)
 .ARM.attributes
                0x000009aa       0x34 c:/renesas/synergy/e2studio_v2022-04_ssp_v2.3.0/toolchains/gcc_arm/gcc-arm-none-eabi-10.3-2021.10/bin/../lib/gcc/arm-none-eabi/10.3.1/../../../../arm-none-eabi/lib/thumb/v7e-m+fp/hard\libg_nano.a(lib_a-fwalk.o)
 .ARM.attributes
                0x000009de       0x34 c:/renesas/synergy/e2studio_v2022-04_ssp_v2.3.0/toolchains/gcc_arm/gcc-arm-none-eabi-10.3-2021.10/bin/../lib/gcc/arm-none-eabi/10.3.1/../../../../arm-none-eabi/lib/thumb/v7e-m+fp/hard\libg_nano.a(lib_a-lock.o)
 .ARM.attributes
                0x00000a12       0x34 c:/renesas/synergy/e2studio_v2022-04_ssp_v2.3.0/toolchains/gcc_arm/gcc-arm-none-eabi-10.3-2021.10/bin/../lib/gcc/arm-none-eabi/10.3.1/../../../../arm-none-eabi/lib/thumb/v7e-m+fp/hard\libg_nano.a(lib_a-makebuf.o)
 .ARM.attributes
                0x00000a46       0x1c c:/renesas/synergy/e2studio_v2022-04_ssp_v2.3.0/toolchains/gcc_arm/gcc-arm-none-eabi-10.3-2021.10/bin/../lib/gcc/arm-none-eabi/10.3.1/../../../../arm-none-eabi/lib/thumb/v7e-m+fp/hard\libg_nano.a(lib_a-memchr.o)
 .ARM.attributes
                0x00000a62       0x34 c:/renesas/synergy/e2studio_v2022-04_ssp_v2.3.0/toolchains/gcc_arm/gcc-arm-none-eabi-10.3-2021.10/bin/../lib/gcc/arm-none-eabi/10.3.1/../../../../arm-none-eabi/lib/thumb/v7e-m+fp/hard\libg_nano.a(lib_a-mlock.o)
 .ARM.attributes
                0x00000a96       0x34 c:/renesas/synergy/e2studio_v2022-04_ssp_v2.3.0/toolchains/gcc_arm/gcc-arm-none-eabi-10.3-2021.10/bin/../lib/gcc/arm-none-eabi/10.3.1/../../../../arm-none-eabi/lib/thumb/v7e-m+fp/hard\libg_nano.a(lib_a-reent.o)
 .ARM.attributes
                0x00000aca       0x34 c:/renesas/synergy/e2studio_v2022-04_ssp_v2.3.0/toolchains/gcc_arm/gcc-arm-none-eabi-10.3-2021.10/bin/../lib/gcc/arm-none-eabi/10.3.1/../../../../arm-none-eabi/lib/thumb/v7e-m+fp/hard\libg_nano.a(lib_a-signal.o)
 .ARM.attributes
                0x00000afe       0x34 c:/renesas/synergy/e2studio_v2022-04_ssp_v2.3.0/toolchains/gcc_arm/gcc-arm-none-eabi-10.3-2021.10/bin/../lib/gcc/arm-none-eabi/10.3.1/../../../../arm-none-eabi/lib/thumb/v7e-m+fp/hard\libg_nano.a(lib_a-signalr.o)
 .ARM.attributes
                0x00000b32       0x34 c:/renesas/synergy/e2studio_v2022-04_ssp_v2.3.0/toolchains/gcc_arm/gcc-arm-none-eabi-10.3-2021.10/bin/../lib/gcc/arm-none-eabi/10.3.1/../../../../arm-none-eabi/lib/thumb/v7e-m+fp/hard\libg_nano.a(lib_a-stdio.o)
 .ARM.attributes
                0x00000b66       0x34 c:/renesas/synergy/e2studio_v2022-04_ssp_v2.3.0/toolchains/gcc_arm/gcc-arm-none-eabi-10.3-2021.10/bin/../lib/gcc/arm-none-eabi/10.3.1/../../../../arm-none-eabi/lib/thumb/v7e-m+fp/hard\libg_nano.a(lib_a-writer.o)
 .ARM.attributes
                0x00000b9a       0x34 c:/renesas/synergy/e2studio_v2022-04_ssp_v2.3.0/toolchains/gcc_arm/gcc-arm-none-eabi-10.3-2021.10/bin/../lib/gcc/arm-none-eabi/10.3.1/../../../../arm-none-eabi/lib/thumb/v7e-m+fp/hard\libg_nano.a(lib_a-closer.o)
 .ARM.attributes
                0x00000bce       0x34 c:/renesas/synergy/e2studio_v2022-04_ssp_v2.3.0/toolchains/gcc_arm/gcc-arm-none-eabi-10.3-2021.10/bin/../lib/gcc/arm-none-eabi/10.3.1/../../../../arm-none-eabi/lib/thumb/v7e-m+fp/hard\libg_nano.a(lib_a-fstatr.o)
 .ARM.attributes
                0x00000c02       0x34 c:/renesas/synergy/e2studio_v2022-04_ssp_v2.3.0/toolchains/gcc_arm/gcc-arm-none-eabi-10.3-2021.10/bin/../lib/gcc/arm-none-eabi/10.3.1/../../../../arm-none-eabi/lib/thumb/v7e-m+fp/hard\libg_nano.a(lib_a-isattyr.o)
 .ARM.attributes
                0x00000c36       0x34 c:/renesas/synergy/e2studio_v2022-04_ssp_v2.3.0/toolchains/gcc_arm/gcc-arm-none-eabi-10.3-2021.10/bin/../lib/gcc/arm-none-eabi/10.3.1/../../../../arm-none-eabi/lib/thumb/v7e-m+fp/hard\libg_nano.a(lib_a-lseekr.o)
 .ARM.attributes
                0x00000c6a       0x34 c:/renesas/synergy/e2studio_v2022-04_ssp_v2.3.0/toolchains/gcc_arm/gcc-arm-none-eabi-10.3-2021.10/bin/../lib/gcc/arm-none-eabi/10.3.1/../../../../arm-none-eabi/lib/thumb/v7e-m+fp/hard\libg_nano.a(lib_a-readr.o)
 .ARM.attributes
                0x00000c9e       0x34 c:/renesas/synergy/e2studio_v2022-04_ssp_v2.3.0/toolchains/gcc_arm/gcc-arm-none-eabi-10.3-2021.10/bin/../lib/gcc/arm-none-eabi/10.3.1/../../../../arm-none-eabi/lib/thumb/v7e-m+fp/hard\librdimon_nano.a(rdimon-syscalls.o)
 .ARM.attributes
                0x00000cd2       0x34 c:/renesas/synergy/e2studio_v2022-04_ssp_v2.3.0/toolchains/gcc_arm/gcc-arm-none-eabi-10.3-2021.10/bin/../lib/gcc/arm-none-eabi/10.3.1/../../../../arm-none-eabi/lib/thumb/v7e-m+fp/hard\librdimon_nano.a(rdimon-_exit.o)
 .ARM.attributes
                0x00000d06       0x34 c:/renesas/synergy/e2studio_v2022-04_ssp_v2.3.0/toolchains/gcc_arm/gcc-arm-none-eabi-10.3-2021.10/bin/../lib/gcc/arm-none-eabi/10.3.1/../../../../arm-none-eabi/lib/thumb/v7e-m+fp/hard\librdimon_nano.a(rdimon-_kill.o)
 .ARM.attributes
                0x00000d3a       0x17 c:/renesas/synergy/e2studio_v2022-04_ssp_v2.3.0/toolchains/gcc_arm/gcc-arm-none-eabi-10.3-2021.10/bin/../lib/gcc/arm-none-eabi/10.3.1/../../../../arm-none-eabi/lib/thumb/v7e-m+fp/hard\libc_nano.a(lib_a-strlen.o)
 .ARM.attributes
                0x00000d51       0x34 c:/renesas/synergy/e2studio_v2022-04_ssp_v2.3.0/toolchains/gcc_arm/gcc-arm-none-eabi-10.3-2021.10/bin/../lib/gcc/arm-none-eabi/10.3.1/thumb/v7e-m+fp/hard/crtend.o
 .ARM.attributes
                0x00000d85       0x1e c:/renesas/synergy/e2studio_v2022-04_ssp_v2.3.0/toolchains/gcc_arm/gcc-arm-none-eabi-10.3-2021.10/bin/../lib/gcc/arm-none-eabi/10.3.1/thumb/v7e-m+fp/hard/crtn.o

.comment        0x00000000       0x49
 .comment       0x00000000       0x49 ./synergy/ssp/src/driver/r_ioport/r_ioport.o
                                 0x4a (size before relaxing)
 .comment       0x00000049       0x4a ./synergy/ssp/src/driver/r_elc/r_elc.o
 .comment       0x00000049       0x4a ./synergy/ssp/src/driver/r_cgc/r_cgc.o
 .comment       0x00000049       0x4a ./synergy/ssp/src/bsp/mcu/s7g2/bsp_cache.o
 .comment       0x00000049       0x4a ./synergy/ssp/src/bsp/mcu/s7g2/bsp_clocks.o
 .comment       0x00000049       0x4a ./synergy/ssp/src/bsp/mcu/s7g2/bsp_feature.o
 .comment       0x00000049       0x4a ./synergy/ssp/src/bsp/mcu/s7g2/bsp_group_irq.o
 .comment       0x00000049       0x4a ./synergy/ssp/src/bsp/mcu/s7g2/bsp_hw_locks.o
 .comment       0x00000049       0x4a ./synergy/ssp/src/bsp/mcu/s7g2/bsp_module_stop.o
 .comment       0x00000049       0x4a ./synergy/ssp/src/bsp/mcu/s7g2/bsp_rom_registers.o
 .comment       0x00000049       0x4a ./synergy/ssp/src/bsp/mcu/all/bsp_common.o
 .comment       0x00000049       0x4a ./synergy/ssp/src/bsp/mcu/all/bsp_common_leds.o
 .comment       0x00000049       0x4a ./synergy/ssp/src/bsp/mcu/all/bsp_delay.o
 .comment       0x00000049       0x4a ./synergy/ssp/src/bsp/mcu/all/bsp_irq.o
 .comment       0x00000049       0x4a ./synergy/ssp/src/bsp/mcu/all/bsp_locking.o
 .comment       0x00000049       0x4a ./synergy/ssp/src/bsp/mcu/all/bsp_register_protection.o
 .comment       0x00000049       0x4a ./synergy/ssp/src/bsp/mcu/all/bsp_sbrk.o
 .comment       0x00000049       0x4a ./synergy/ssp/src/bsp/cmsis/Device/RENESAS/S7G2/Source/startup_S7G2.o
 .comment       0x00000049       0x4a ./synergy/ssp/src/bsp/cmsis/Device/RENESAS/S7G2/Source/system_S7G2.o
 .comment       0x00000049       0x4a ./synergy/board/s7g2_sk/bsp_init.o
 .comment       0x00000049       0x4a ./synergy/board/s7g2_sk/bsp_leds.o
 .comment       0x00000049       0x4a ./synergy/board/s7g2_sk/bsp_qspi.o
 .comment       0x00000049       0x4a ./src/synergy_gen/common_data.o
 .comment       0x00000049       0x4a ./src/synergy_gen/main.o
 .comment       0x00000049       0x4a ./src/synergy_gen/pin_data.o
 .comment       0x00000049       0x4a ./src/hal_entry.o
 .comment       0x00000049       0x4a C:\Users\wesle\e2_studio\workspace\hello_world_basic\synergy\ssp\src\driver\r_fmi\libs\libfmi_cm4_s7g2_gcc.a(r_fmi.o)
 .comment       0x00000049       0x4a C:\Users\wesle\e2_studio\workspace\hello_world_basic\synergy\ssp\src\bsp\mcu\s7g2\libfmi_R7FS7G27H3A01CFC_gcc.a(bsp_fmi_R7FS7G27H3A01CFC.o)

.debug_info     0x00000000    0x32f83
 .debug_info    0x00000000    0x10aad ./synergy/ssp/src/driver/r_ioport/r_ioport.o
 .debug_info    0x00010aad     0x2262 ./synergy/ssp/src/driver/r_elc/r_elc.o
 .debug_info    0x00012d0f     0x82e6 ./synergy/ssp/src/driver/r_cgc/r_cgc.o
 .debug_info    0x0001aff5      0x86a ./synergy/ssp/src/bsp/mcu/s7g2/bsp_cache.o
 .debug_info    0x0001b85f     0x1799 ./synergy/ssp/src/bsp/mcu/s7g2/bsp_clocks.o
 .debug_info    0x0001cff8      0xb50 ./synergy/ssp/src/bsp/mcu/s7g2/bsp_feature.o
 .debug_info    0x0001db48     0x1506 ./synergy/ssp/src/bsp/mcu/s7g2/bsp_group_irq.o
 .debug_info    0x0001f04e     0x1436 ./synergy/ssp/src/bsp/mcu/s7g2/bsp_hw_locks.o
 .debug_info    0x00020484     0x32d7 ./synergy/ssp/src/bsp/mcu/s7g2/bsp_module_stop.o
 .debug_info    0x0002375b      0x22b ./synergy/ssp/src/bsp/mcu/s7g2/bsp_rom_registers.o
 .debug_info    0x00023986      0x941 ./synergy/ssp/src/bsp/mcu/all/bsp_common.o
 .debug_info    0x000242c7      0xbcc ./synergy/ssp/src/bsp/mcu/all/bsp_common_leds.o
 .debug_info    0x00024e93      0x1d7 ./synergy/ssp/src/bsp/mcu/all/bsp_delay.o
 .debug_info    0x0002506a      0xd27 ./synergy/ssp/src/bsp/mcu/all/bsp_irq.o
 .debug_info    0x00025d91      0xe91 ./synergy/ssp/src/bsp/mcu/all/bsp_locking.o
 .debug_info    0x00026c22     0x2293 ./synergy/ssp/src/bsp/mcu/all/bsp_register_protection.o
 .debug_info    0x00028eb5      0x13b ./synergy/ssp/src/bsp/mcu/all/bsp_sbrk.o
 .debug_info    0x00028ff0      0x2d2 ./synergy/ssp/src/bsp/cmsis/Device/RENESAS/S7G2/Source/startup_S7G2.o
 .debug_info    0x000292c2     0x38a1 ./synergy/ssp/src/bsp/cmsis/Device/RENESAS/S7G2/Source/system_S7G2.o
 .debug_info    0x0002cb63       0xae ./synergy/board/s7g2_sk/bsp_init.o
 .debug_info    0x0002cc11      0x7bd ./synergy/board/s7g2_sk/bsp_leds.o
 .debug_info    0x0002d3ce     0x1221 ./synergy/board/s7g2_sk/bsp_qspi.o
 .debug_info    0x0002e5ef     0x2e76 ./src/synergy_gen/common_data.o
 .debug_info    0x00031465       0x5d ./src/synergy_gen/main.o
 .debug_info    0x000314c2      0x989 ./src/synergy_gen/pin_data.o
 .debug_info    0x00031e4b     0x1138 ./src/hal_entry.o

.debug_abbrev   0x00000000     0x3912
 .debug_abbrev  0x00000000      0x553 ./synergy/ssp/src/driver/r_ioport/r_ioport.o
 .debug_abbrev  0x00000553      0x358 ./synergy/ssp/src/driver/r_elc/r_elc.o
 .debug_abbrev  0x000008ab      0x61a ./synergy/ssp/src/driver/r_cgc/r_cgc.o
 .debug_abbrev  0x00000ec5      0x179 ./synergy/ssp/src/bsp/mcu/s7g2/bsp_cache.o
 .debug_abbrev  0x0000103e      0x3d1 ./synergy/ssp/src/bsp/mcu/s7g2/bsp_clocks.o
 .debug_abbrev  0x0000140f       0xde ./synergy/ssp/src/bsp/mcu/s7g2/bsp_feature.o
 .debug_abbrev  0x000014ed      0x2bc ./synergy/ssp/src/bsp/mcu/s7g2/bsp_group_irq.o
 .debug_abbrev  0x000017a9      0x141 ./synergy/ssp/src/bsp/mcu/s7g2/bsp_hw_locks.o
 .debug_abbrev  0x000018ea      0x366 ./synergy/ssp/src/bsp/mcu/s7g2/bsp_module_stop.o
 .debug_abbrev  0x00001c50       0x7d ./synergy/ssp/src/bsp/mcu/s7g2/bsp_rom_registers.o
 .debug_abbrev  0x00001ccd      0x1b4 ./synergy/ssp/src/bsp/mcu/all/bsp_common.o
 .debug_abbrev  0x00001e81       0xef ./synergy/ssp/src/bsp/mcu/all/bsp_common_leds.o
 .debug_abbrev  0x00001f70      0x11c ./synergy/ssp/src/bsp/mcu/all/bsp_delay.o
 .debug_abbrev  0x0000208c      0x24b ./synergy/ssp/src/bsp/mcu/all/bsp_irq.o
 .debug_abbrev  0x000022d7      0x34e ./synergy/ssp/src/bsp/mcu/all/bsp_locking.o
 .debug_abbrev  0x00002625      0x271 ./synergy/ssp/src/bsp/mcu/all/bsp_register_protection.o
 .debug_abbrev  0x00002896       0xcc ./synergy/ssp/src/bsp/mcu/all/bsp_sbrk.o
 .debug_abbrev  0x00002962      0x104 ./synergy/ssp/src/bsp/cmsis/Device/RENESAS/S7G2/Source/startup_S7G2.o
 .debug_abbrev  0x00002a66      0x44e ./synergy/ssp/src/bsp/cmsis/Device/RENESAS/S7G2/Source/system_S7G2.o
 .debug_abbrev  0x00002eb4       0x82 ./synergy/board/s7g2_sk/bsp_init.o
 .debug_abbrev  0x00002f36       0xd3 ./synergy/board/s7g2_sk/bsp_leds.o
 .debug_abbrev  0x00003009      0x35a ./synergy/board/s7g2_sk/bsp_qspi.o
 .debug_abbrev  0x00003363      0x230 ./src/synergy_gen/common_data.o
 .debug_abbrev  0x00003593       0x5b ./src/synergy_gen/main.o
 .debug_abbrev  0x000035ee      0x104 ./src/synergy_gen/pin_data.o
 .debug_abbrev  0x000036f2      0x220 ./src/hal_entry.o

.debug_loc      0x00000000     0x71f2
 .debug_loc     0x00000000     0x210d ./synergy/ssp/src/driver/r_ioport/r_ioport.o
 .debug_loc     0x0000210d      0x2e8 ./synergy/ssp/src/driver/r_elc/r_elc.o
 .debug_loc     0x000023f5     0x33b3 ./synergy/ssp/src/driver/r_cgc/r_cgc.o
 .debug_loc     0x000057a8       0xcf ./synergy/ssp/src/bsp/mcu/s7g2/bsp_cache.o
 .debug_loc     0x00005877      0x2a7 ./synergy/ssp/src/bsp/mcu/s7g2/bsp_clocks.o
 .debug_loc     0x00005b1e      0x29b ./synergy/ssp/src/bsp/mcu/s7g2/bsp_group_irq.o
 .debug_loc     0x00005db9      0x88b ./synergy/ssp/src/bsp/mcu/s7g2/bsp_module_stop.o
 .debug_loc     0x00006644       0x84 ./synergy/ssp/src/bsp/mcu/all/bsp_common.o
 .debug_loc     0x000066c8       0x3c ./synergy/ssp/src/bsp/mcu/all/bsp_common_leds.o
 .debug_loc     0x00006704      0x15d ./synergy/ssp/src/bsp/mcu/all/bsp_delay.o
 .debug_loc     0x00006861       0x48 ./synergy/ssp/src/bsp/mcu/all/bsp_irq.o
 .debug_loc     0x000068a9      0x3f4 ./synergy/ssp/src/bsp/mcu/all/bsp_locking.o
 .debug_loc     0x00006c9d      0x145 ./synergy/ssp/src/bsp/mcu/all/bsp_register_protection.o
 .debug_loc     0x00006de2       0xf3 ./synergy/ssp/src/bsp/mcu/all/bsp_sbrk.o
 .debug_loc     0x00006ed5       0xb8 ./synergy/ssp/src/bsp/cmsis/Device/RENESAS/S7G2/Source/system_S7G2.o
 .debug_loc     0x00006f8d       0x25 ./synergy/board/s7g2_sk/bsp_init.o
 .debug_loc     0x00006fb2      0x1df ./synergy/board/s7g2_sk/bsp_qspi.o
 .debug_loc     0x00007191       0x61 ./src/hal_entry.o

.debug_aranges  0x00000000      0x610
 .debug_aranges
                0x00000000       0x98 ./synergy/ssp/src/driver/r_ioport/r_ioport.o
 .debug_aranges
                0x00000098       0x50 ./synergy/ssp/src/driver/r_elc/r_elc.o
 .debug_aranges
                0x000000e8      0x118 ./synergy/ssp/src/driver/r_cgc/r_cgc.o
 .debug_aranges
                0x00000200       0x28 ./synergy/ssp/src/bsp/mcu/s7g2/bsp_cache.o
 .debug_aranges
                0x00000228       0x30 ./synergy/ssp/src/bsp/mcu/s7g2/bsp_clocks.o
 .debug_aranges
                0x00000258       0x90 ./synergy/ssp/src/bsp/mcu/s7g2/bsp_feature.o
 .debug_aranges
                0x000002e8       0x38 ./synergy/ssp/src/bsp/mcu/s7g2/bsp_group_irq.o
 .debug_aranges
                0x00000320       0x18 ./synergy/ssp/src/bsp/mcu/s7g2/bsp_hw_locks.o
 .debug_aranges
                0x00000338       0x38 ./synergy/ssp/src/bsp/mcu/s7g2/bsp_module_stop.o
 .debug_aranges
                0x00000370       0x18 ./synergy/ssp/src/bsp/mcu/s7g2/bsp_rom_registers.o
 .debug_aranges
                0x00000388       0x30 ./synergy/ssp/src/bsp/mcu/all/bsp_common.o
 .debug_aranges
                0x000003b8       0x20 ./synergy/ssp/src/bsp/mcu/all/bsp_common_leds.o
 .debug_aranges
                0x000003d8       0x28 ./synergy/ssp/src/bsp/mcu/all/bsp_delay.o
 .debug_aranges
                0x00000400       0x28 ./synergy/ssp/src/bsp/mcu/all/bsp_irq.o
 .debug_aranges
                0x00000428       0x40 ./synergy/ssp/src/bsp/mcu/all/bsp_locking.o
 .debug_aranges
                0x00000468       0x30 ./synergy/ssp/src/bsp/mcu/all/bsp_register_protection.o
 .debug_aranges
                0x00000498       0x20 ./synergy/ssp/src/bsp/mcu/all/bsp_sbrk.o
 .debug_aranges
                0x000004b8       0x28 ./synergy/ssp/src/bsp/cmsis/Device/RENESAS/S7G2/Source/startup_S7G2.o
 .debug_aranges
                0x000004e0       0x30 ./synergy/ssp/src/bsp/cmsis/Device/RENESAS/S7G2/Source/system_S7G2.o
 .debug_aranges
                0x00000510       0x20 ./synergy/board/s7g2_sk/bsp_init.o
 .debug_aranges
                0x00000530       0x18 ./synergy/board/s7g2_sk/bsp_leds.o
 .debug_aranges
                0x00000548       0x50 ./synergy/board/s7g2_sk/bsp_qspi.o
 .debug_aranges
                0x00000598       0x20 ./src/synergy_gen/common_data.o
 .debug_aranges
                0x000005b8       0x20 ./src/synergy_gen/main.o
 .debug_aranges
                0x000005d8       0x18 ./src/synergy_gen/pin_data.o
 .debug_aranges
                0x000005f0       0x20 ./src/hal_entry.o

.debug_ranges   0x00000000     0x1dc8
 .debug_ranges  0x00000000      0x648 ./synergy/ssp/src/driver/r_ioport/r_ioport.o
 .debug_ranges  0x00000648       0xf0 ./synergy/ssp/src/driver/r_elc/r_elc.o
 .debug_ranges  0x00000738      0xff0 ./synergy/ssp/src/driver/r_cgc/r_cgc.o
 .debug_ranges  0x00001728       0x18 ./synergy/ssp/src/bsp/mcu/s7g2/bsp_cache.o
 .debug_ranges  0x00001740       0xf0 ./synergy/ssp/src/bsp/mcu/s7g2/bsp_clocks.o
 .debug_ranges  0x00001830       0x80 ./synergy/ssp/src/bsp/mcu/s7g2/bsp_feature.o
 .debug_ranges  0x000018b0       0x28 ./synergy/ssp/src/bsp/mcu/s7g2/bsp_group_irq.o
 .debug_ranges  0x000018d8      0x138 ./synergy/ssp/src/bsp/mcu/s7g2/bsp_module_stop.o
 .debug_ranges  0x00001a10       0x20 ./synergy/ssp/src/bsp/mcu/all/bsp_common.o
 .debug_ranges  0x00001a30       0x10 ./synergy/ssp/src/bsp/mcu/all/bsp_common_leds.o
 .debug_ranges  0x00001a40       0x18 ./synergy/ssp/src/bsp/mcu/all/bsp_delay.o
 .debug_ranges  0x00001a58       0x18 ./synergy/ssp/src/bsp/mcu/all/bsp_irq.o
 .debug_ranges  0x00001a70      0x180 ./synergy/ssp/src/bsp/mcu/all/bsp_locking.o
 .debug_ranges  0x00001bf0       0x50 ./synergy/ssp/src/bsp/mcu/all/bsp_register_protection.o
 .debug_ranges  0x00001c40       0x10 ./synergy/ssp/src/bsp/mcu/all/bsp_sbrk.o
 .debug_ranges  0x00001c50       0x18 ./synergy/ssp/src/bsp/cmsis/Device/RENESAS/S7G2/Source/startup_S7G2.o
 .debug_ranges  0x00001c68       0x90 ./synergy/ssp/src/bsp/cmsis/Device/RENESAS/S7G2/Source/system_S7G2.o
 .debug_ranges  0x00001cf8       0x10 ./synergy/board/s7g2_sk/bsp_init.o
 .debug_ranges  0x00001d08       0x78 ./synergy/board/s7g2_sk/bsp_qspi.o
 .debug_ranges  0x00001d80       0x10 ./src/synergy_gen/common_data.o
 .debug_ranges  0x00001d90       0x10 ./src/synergy_gen/main.o
 .debug_ranges  0x00001da0       0x28 ./src/hal_entry.o

.debug_line     0x00000000     0xa555
 .debug_line    0x00000000     0x15e5 ./synergy/ssp/src/driver/r_ioport/r_ioport.o
 .debug_line    0x000015e5      0x6ff ./synergy/ssp/src/driver/r_elc/r_elc.o
 .debug_line    0x00001ce4     0x2fa3 ./synergy/ssp/src/driver/r_cgc/r_cgc.o
 .debug_line    0x00004c87      0x357 ./synergy/ssp/src/bsp/mcu/s7g2/bsp_cache.o
 .debug_line    0x00004fde      0x767 ./synergy/ssp/src/bsp/mcu/s7g2/bsp_clocks.o
 .debug_line    0x00005745      0x4af ./synergy/ssp/src/bsp/mcu/s7g2/bsp_feature.o
 .debug_line    0x00005bf4      0x608 ./synergy/ssp/src/bsp/mcu/s7g2/bsp_group_irq.o
 .debug_line    0x000061fc      0x23c ./synergy/ssp/src/bsp/mcu/s7g2/bsp_hw_locks.o
 .debug_line    0x00006438      0x727 ./synergy/ssp/src/bsp/mcu/s7g2/bsp_module_stop.o
 .debug_line    0x00006b5f      0x1d9 ./synergy/ssp/src/bsp/mcu/s7g2/bsp_rom_registers.o
 .debug_line    0x00006d38      0x2b9 ./synergy/ssp/src/bsp/mcu/all/bsp_common.o
 .debug_line    0x00006ff1      0x2c4 ./synergy/ssp/src/bsp/mcu/all/bsp_common_leds.o
 .debug_line    0x000072b5      0x28e ./synergy/ssp/src/bsp/mcu/all/bsp_delay.o
 .debug_line    0x00007543      0x33e ./synergy/ssp/src/bsp/mcu/all/bsp_irq.o
 .debug_line    0x00007881      0x5ef ./synergy/ssp/src/bsp/mcu/all/bsp_locking.o
 .debug_line    0x00007e70      0x464 ./synergy/ssp/src/bsp/mcu/all/bsp_register_protection.o
 .debug_line    0x000082d4      0x1f6 ./synergy/ssp/src/bsp/mcu/all/bsp_sbrk.o
 .debug_line    0x000084ca      0x2c2 ./synergy/ssp/src/bsp/cmsis/Device/RENESAS/S7G2/Source/startup_S7G2.o
 .debug_line    0x0000878c      0x8bf ./synergy/ssp/src/bsp/cmsis/Device/RENESAS/S7G2/Source/system_S7G2.o
 .debug_line    0x0000904b       0xb2 ./synergy/board/s7g2_sk/bsp_init.o
 .debug_line    0x000090fd      0x240 ./synergy/board/s7g2_sk/bsp_leds.o
 .debug_line    0x0000933d      0x7b5 ./synergy/board/s7g2_sk/bsp_qspi.o
 .debug_line    0x00009af2      0x43c ./src/synergy_gen/common_data.o
 .debug_line    0x00009f2e       0x59 ./src/synergy_gen/main.o
 .debug_line    0x00009f87      0x225 ./src/synergy_gen/pin_data.o
 .debug_line    0x0000a1ac      0x3a9 ./src/hal_entry.o

.debug_str      0x00000000     0xdf06
 .debug_str     0x00000000     0x8209 ./synergy/ssp/src/driver/r_ioport/r_ioport.o
                               0x83d2 (size before relaxing)
 .debug_str     0x00008209      0x43d ./synergy/ssp/src/driver/r_elc/r_elc.o
                               0x51f5 (size before relaxing)
 .debug_str     0x00008646     0x1958 ./synergy/ssp/src/driver/r_cgc/r_cgc.o
                               0x7368 (size before relaxing)
 .debug_str     0x00009f9e       0x7b ./synergy/ssp/src/bsp/mcu/s7g2/bsp_cache.o
                               0x162b (size before relaxing)
 .debug_str     0x0000a019      0x250 ./synergy/ssp/src/bsp/mcu/s7g2/bsp_clocks.o
                               0x21cf (size before relaxing)
 .debug_str     0x0000a269      0xd89 ./synergy/ssp/src/bsp/mcu/s7g2/bsp_feature.o
                               0x13d1 (size before relaxing)
 .debug_str     0x0000aff2      0x379 ./synergy/ssp/src/bsp/mcu/s7g2/bsp_group_irq.o
                               0x2139 (size before relaxing)
 .debug_str     0x0000b36b     0x135e ./synergy/ssp/src/bsp/mcu/s7g2/bsp_hw_locks.o
                               0x1f02 (size before relaxing)
 .debug_str     0x0000c6c9      0x2eb ./synergy/ssp/src/bsp/mcu/s7g2/bsp_module_stop.o
                               0x2dfb (size before relaxing)
 .debug_str     0x0000c9b4       0x57 ./synergy/ssp/src/bsp/mcu/s7g2/bsp_rom_registers.o
                                0x8a3 (size before relaxing)
 .debug_str     0x0000ca0b       0xd1 ./synergy/ssp/src/bsp/mcu/all/bsp_common.o
                               0x1d24 (size before relaxing)
 .debug_str     0x0000cadc       0x6b ./synergy/ssp/src/bsp/mcu/all/bsp_common_leds.o
                               0x2616 (size before relaxing)
 .debug_str     0x0000cb47      0x119 ./synergy/ssp/src/bsp/mcu/all/bsp_delay.o
                                0x2d2 (size before relaxing)
 .debug_str     0x0000cc60      0x119 ./synergy/ssp/src/bsp/mcu/all/bsp_irq.o
                                0xdb1 (size before relaxing)
 .debug_str     0x0000cd79      0x14e ./synergy/ssp/src/bsp/mcu/all/bsp_locking.o
                               0x2098 (size before relaxing)
 .debug_str     0x0000cec7       0xa7 ./synergy/ssp/src/bsp/mcu/all/bsp_register_protection.o
                               0x157b (size before relaxing)
 .debug_str     0x0000cf6e       0x9b ./synergy/ssp/src/bsp/mcu/all/bsp_sbrk.o
                                0x23e (size before relaxing)
 .debug_str     0x0000d009       0x9d ./synergy/ssp/src/bsp/cmsis/Device/RENESAS/S7G2/Source/startup_S7G2.o
                                0x8fb (size before relaxing)
 .debug_str     0x0000d0a6      0x2d0 ./synergy/ssp/src/bsp/cmsis/Device/RENESAS/S7G2/Source/system_S7G2.o
                               0x726d (size before relaxing)
 .debug_str     0x0000d376       0x32 ./synergy/board/s7g2_sk/bsp_init.o
                                0x1c6 (size before relaxing)
 .debug_str     0x0000d3a8       0x33 ./synergy/board/s7g2_sk/bsp_leds.o
                               0x196c (size before relaxing)
 .debug_str     0x0000d3db      0x80b ./synergy/board/s7g2_sk/bsp_qspi.o
                               0x136c (size before relaxing)
 .debug_str     0x0000dbe6       0xd2 ./src/synergy_gen/common_data.o
                               0x738c (size before relaxing)
 .debug_str     0x0000dcb8       0x24 ./src/synergy_gen/main.o
                                0x129 (size before relaxing)
 .debug_str     0x0000dcdc      0x1fc ./src/synergy_gen/pin_data.o
                               0x1e3d (size before relaxing)
 .debug_str     0x0000ded8       0x2e ./src/hal_entry.o
                               0x2b1a (size before relaxing)

.debug_frame    0x00000000     0x1c38
 .debug_frame   0x00000000      0x284 ./synergy/ssp/src/driver/r_ioport/r_ioport.o
 .debug_frame   0x00000284       0xa0 ./synergy/ssp/src/driver/r_elc/r_elc.o
 .debug_frame   0x00000324      0x480 ./synergy/ssp/src/driver/r_cgc/r_cgc.o
 .debug_frame   0x000007a4       0x30 ./synergy/ssp/src/bsp/mcu/s7g2/bsp_cache.o
 .debug_frame   0x000007d4       0x74 ./synergy/ssp/src/bsp/mcu/s7g2/bsp_clocks.o
 .debug_frame   0x00000848      0x100 ./synergy/ssp/src/bsp/mcu/s7g2/bsp_feature.o
 .debug_frame   0x00000948       0x60 ./synergy/ssp/src/bsp/mcu/s7g2/bsp_group_irq.o
 .debug_frame   0x000009a8       0xac ./synergy/ssp/src/bsp/mcu/s7g2/bsp_module_stop.o
 .debug_frame   0x00000a54       0x40 ./synergy/ssp/src/bsp/mcu/all/bsp_common.o
 .debug_frame   0x00000a94       0x20 ./synergy/ssp/src/bsp/mcu/all/bsp_common_leds.o
 .debug_frame   0x00000ab4       0x44 ./synergy/ssp/src/bsp/mcu/all/bsp_delay.o
 .debug_frame   0x00000af8       0x3c ./synergy/ssp/src/bsp/mcu/all/bsp_irq.o
 .debug_frame   0x00000b34       0x9c ./synergy/ssp/src/bsp/mcu/all/bsp_locking.o
 .debug_frame   0x00000bd0       0x58 ./synergy/ssp/src/bsp/mcu/all/bsp_register_protection.o
 .debug_frame   0x00000c28       0x28 ./synergy/ssp/src/bsp/mcu/all/bsp_sbrk.o
 .debug_frame   0x00000c50       0x38 ./synergy/ssp/src/bsp/cmsis/Device/RENESAS/S7G2/Source/startup_S7G2.o
 .debug_frame   0x00000c88       0x64 ./synergy/ssp/src/bsp/cmsis/Device/RENESAS/S7G2/Source/system_S7G2.o
 .debug_frame   0x00000cec       0x20 ./synergy/board/s7g2_sk/bsp_init.o
 .debug_frame   0x00000d0c       0xb4 ./synergy/board/s7g2_sk/bsp_qspi.o
 .debug_frame   0x00000dc0       0x20 ./src/synergy_gen/common_data.o
 .debug_frame   0x00000de0       0x28 ./src/synergy_gen/main.o
 .debug_frame   0x00000e08       0x30 ./src/hal_entry.o
 .debug_frame   0x00000e38       0x20 c:/renesas/synergy/e2studio_v2022-04_ssp_v2.3.0/toolchains/gcc_arm/gcc-arm-none-eabi-10.3-2021.10/bin/../lib/gcc/arm-none-eabi/10.3.1/../../../../arm-none-eabi/lib/thumb/v7e-m+fp/hard\libg_nano.a(lib_a-errno.o)
 .debug_frame   0x00000e58       0x28 c:/renesas/synergy/e2studio_v2022-04_ssp_v2.3.0/toolchains/gcc_arm/gcc-arm-none-eabi-10.3-2021.10/bin/../lib/gcc/arm-none-eabi/10.3.1/../../../../arm-none-eabi/lib/thumb/v7e-m+fp/hard\libg_nano.a(lib_a-memcpy-stub.o)
 .debug_frame   0x00000e80       0x20 c:/renesas/synergy/e2studio_v2022-04_ssp_v2.3.0/toolchains/gcc_arm/gcc-arm-none-eabi-10.3-2021.10/bin/../lib/gcc/arm-none-eabi/10.3.1/../../../../arm-none-eabi/lib/thumb/v7e-m+fp/hard\libg_nano.a(lib_a-memset.o)
 .debug_frame   0x00000ea0       0x44 c:/renesas/synergy/e2studio_v2022-04_ssp_v2.3.0/toolchains/gcc_arm/gcc-arm-none-eabi-10.3-2021.10/bin/../lib/gcc/arm-none-eabi/10.3.1/../../../../arm-none-eabi/lib/thumb/v7e-m+fp/hard\libg_nano.a(lib_a-rand.o)
 .debug_frame   0x00000ee4       0x40 c:/renesas/synergy/e2studio_v2022-04_ssp_v2.3.0/toolchains/gcc_arm/gcc-arm-none-eabi-10.3-2021.10/bin/../lib/gcc/arm-none-eabi/10.3.1/../../../../arm-none-eabi/lib/thumb/v7e-m+fp/hard\libg_nano.a(lib_a-assert.o)
 .debug_frame   0x00000f24       0x64 c:/renesas/synergy/e2studio_v2022-04_ssp_v2.3.0/toolchains/gcc_arm/gcc-arm-none-eabi-10.3-2021.10/bin/../lib/gcc/arm-none-eabi/10.3.1/../../../../arm-none-eabi/lib/thumb/v7e-m+fp/hard\libg_nano.a(lib_a-fprintf.o)
 .debug_frame   0x00000f88       0x30 c:/renesas/synergy/e2studio_v2022-04_ssp_v2.3.0/toolchains/gcc_arm/gcc-arm-none-eabi-10.3-2021.10/bin/../lib/gcc/arm-none-eabi/10.3.1/../../../../arm-none-eabi/lib/thumb/v7e-m+fp/hard\libg_nano.a(lib_a-malloc.o)
 .debug_frame   0x00000fb8       0x38 c:/renesas/synergy/e2studio_v2022-04_ssp_v2.3.0/toolchains/gcc_arm/gcc-arm-none-eabi-10.3-2021.10/bin/../lib/gcc/arm-none-eabi/10.3.1/../../../../arm-none-eabi/lib/thumb/v7e-m+fp/hard\libg_nano.a(lib_a-nano-freer.o)
 .debug_frame   0x00000ff0       0x4c c:/renesas/synergy/e2studio_v2022-04_ssp_v2.3.0/toolchains/gcc_arm/gcc-arm-none-eabi-10.3-2021.10/bin/../lib/gcc/arm-none-eabi/10.3.1/../../../../arm-none-eabi/lib/thumb/v7e-m+fp/hard\libg_nano.a(lib_a-nano-mallocr.o)
 .debug_frame   0x0000103c       0xac c:/renesas/synergy/e2studio_v2022-04_ssp_v2.3.0/toolchains/gcc_arm/gcc-arm-none-eabi-10.3-2021.10/bin/../lib/gcc/arm-none-eabi/10.3.1/../../../../arm-none-eabi/lib/thumb/v7e-m+fp/hard\libg_nano.a(lib_a-nano-vfprintf.o)
 .debug_frame   0x000010e8       0x60 c:/renesas/synergy/e2studio_v2022-04_ssp_v2.3.0/toolchains/gcc_arm/gcc-arm-none-eabi-10.3-2021.10/bin/../lib/gcc/arm-none-eabi/10.3.1/../../../../arm-none-eabi/lib/thumb/v7e-m+fp/hard\libg_nano.a(lib_a-nano-vfprintf_i.o)
 .debug_frame   0x00001148       0x2c c:/renesas/synergy/e2studio_v2022-04_ssp_v2.3.0/toolchains/gcc_arm/gcc-arm-none-eabi-10.3-2021.10/bin/../lib/gcc/arm-none-eabi/10.3.1/../../../../arm-none-eabi/lib/thumb/v7e-m+fp/hard\libg_nano.a(lib_a-sbrkr.o)
 .debug_frame   0x00001174       0x40 c:/renesas/synergy/e2studio_v2022-04_ssp_v2.3.0/toolchains/gcc_arm/gcc-arm-none-eabi-10.3-2021.10/bin/../lib/gcc/arm-none-eabi/10.3.1/../../../../arm-none-eabi/lib/thumb/v7e-m+fp/hard\libg_nano.a(lib_a-wbuf.o)
 .debug_frame   0x000011b4       0x2c c:/renesas/synergy/e2studio_v2022-04_ssp_v2.3.0/toolchains/gcc_arm/gcc-arm-none-eabi-10.3-2021.10/bin/../lib/gcc/arm-none-eabi/10.3.1/../../../../arm-none-eabi/lib/thumb/v7e-m+fp/hard\libg_nano.a(lib_a-wsetup.o)
 .debug_frame   0x000011e0       0x28 c:/renesas/synergy/e2studio_v2022-04_ssp_v2.3.0/toolchains/gcc_arm/gcc-arm-none-eabi-10.3-2021.10/bin/../lib/gcc/arm-none-eabi/10.3.1/../../../../arm-none-eabi/lib/thumb/v7e-m+fp/hard\libg_nano.a(lib_a-abort.o)
 .debug_frame   0x00001208       0x5c c:/renesas/synergy/e2studio_v2022-04_ssp_v2.3.0/toolchains/gcc_arm/gcc-arm-none-eabi-10.3-2021.10/bin/../lib/gcc/arm-none-eabi/10.3.1/../../../../arm-none-eabi/lib/thumb/v7e-m+fp/hard\libg_nano.a(lib_a-fflush.o)
 .debug_frame   0x00001264      0x14c c:/renesas/synergy/e2studio_v2022-04_ssp_v2.3.0/toolchains/gcc_arm/gcc-arm-none-eabi-10.3-2021.10/bin/../lib/gcc/arm-none-eabi/10.3.1/../../../../arm-none-eabi/lib/thumb/v7e-m+fp/hard\libg_nano.a(lib_a-findfp.o)
 .debug_frame   0x000013b0       0x54 c:/renesas/synergy/e2studio_v2022-04_ssp_v2.3.0/toolchains/gcc_arm/gcc-arm-none-eabi-10.3-2021.10/bin/../lib/gcc/arm-none-eabi/10.3.1/../../../../arm-none-eabi/lib/thumb/v7e-m+fp/hard\libg_nano.a(lib_a-fwalk.o)
 .debug_frame   0x00001404       0xb0 c:/renesas/synergy/e2studio_v2022-04_ssp_v2.3.0/toolchains/gcc_arm/gcc-arm-none-eabi-10.3-2021.10/bin/../lib/gcc/arm-none-eabi/10.3.1/../../../../arm-none-eabi/lib/thumb/v7e-m+fp/hard\libg_nano.a(lib_a-lock.o)
 .debug_frame   0x000014b4       0x58 c:/renesas/synergy/e2studio_v2022-04_ssp_v2.3.0/toolchains/gcc_arm/gcc-arm-none-eabi-10.3-2021.10/bin/../lib/gcc/arm-none-eabi/10.3.1/../../../../arm-none-eabi/lib/thumb/v7e-m+fp/hard\libg_nano.a(lib_a-makebuf.o)
 .debug_frame   0x0000150c       0x30 c:/renesas/synergy/e2studio_v2022-04_ssp_v2.3.0/toolchains/gcc_arm/gcc-arm-none-eabi-10.3-2021.10/bin/../lib/gcc/arm-none-eabi/10.3.1/../../../../arm-none-eabi/lib/thumb/v7e-m+fp/hard\libg_nano.a(lib_a-mlock.o)
 .debug_frame   0x0000153c       0x5c c:/renesas/synergy/e2studio_v2022-04_ssp_v2.3.0/toolchains/gcc_arm/gcc-arm-none-eabi-10.3-2021.10/bin/../lib/gcc/arm-none-eabi/10.3.1/../../../../arm-none-eabi/lib/thumb/v7e-m+fp/hard\libg_nano.a(lib_a-reent.o)
 .debug_frame   0x00001598       0xcc c:/renesas/synergy/e2studio_v2022-04_ssp_v2.3.0/toolchains/gcc_arm/gcc-arm-none-eabi-10.3-2021.10/bin/../lib/gcc/arm-none-eabi/10.3.1/../../../../arm-none-eabi/lib/thumb/v7e-m+fp/hard\libg_nano.a(lib_a-signal.o)
 .debug_frame   0x00001664       0x3c c:/renesas/synergy/e2studio_v2022-04_ssp_v2.3.0/toolchains/gcc_arm/gcc-arm-none-eabi-10.3-2021.10/bin/../lib/gcc/arm-none-eabi/10.3.1/../../../../arm-none-eabi/lib/thumb/v7e-m+fp/hard\libg_nano.a(lib_a-signalr.o)
 .debug_frame   0x000016a0       0x88 c:/renesas/synergy/e2studio_v2022-04_ssp_v2.3.0/toolchains/gcc_arm/gcc-arm-none-eabi-10.3-2021.10/bin/../lib/gcc/arm-none-eabi/10.3.1/../../../../arm-none-eabi/lib/thumb/v7e-m+fp/hard\libg_nano.a(lib_a-stdio.o)
 .debug_frame   0x00001728       0x2c c:/renesas/synergy/e2studio_v2022-04_ssp_v2.3.0/toolchains/gcc_arm/gcc-arm-none-eabi-10.3-2021.10/bin/../lib/gcc/arm-none-eabi/10.3.1/../../../../arm-none-eabi/lib/thumb/v7e-m+fp/hard\libg_nano.a(lib_a-writer.o)
 .debug_frame   0x00001754       0x2c c:/renesas/synergy/e2studio_v2022-04_ssp_v2.3.0/toolchains/gcc_arm/gcc-arm-none-eabi-10.3-2021.10/bin/../lib/gcc/arm-none-eabi/10.3.1/../../../../arm-none-eabi/lib/thumb/v7e-m+fp/hard\libg_nano.a(lib_a-closer.o)
 .debug_frame   0x00001780       0x2c c:/renesas/synergy/e2studio_v2022-04_ssp_v2.3.0/toolchains/gcc_arm/gcc-arm-none-eabi-10.3-2021.10/bin/../lib/gcc/arm-none-eabi/10.3.1/../../../../arm-none-eabi/lib/thumb/v7e-m+fp/hard\libg_nano.a(lib_a-fstatr.o)
 .debug_frame   0x000017ac       0x2c c:/renesas/synergy/e2studio_v2022-04_ssp_v2.3.0/toolchains/gcc_arm/gcc-arm-none-eabi-10.3-2021.10/bin/../lib/gcc/arm-none-eabi/10.3.1/../../../../arm-none-eabi/lib/thumb/v7e-m+fp/hard\libg_nano.a(lib_a-isattyr.o)
 .debug_frame   0x000017d8       0x2c c:/renesas/synergy/e2studio_v2022-04_ssp_v2.3.0/toolchains/gcc_arm/gcc-arm-none-eabi-10.3-2021.10/bin/../lib/gcc/arm-none-eabi/10.3.1/../../../../arm-none-eabi/lib/thumb/v7e-m+fp/hard\libg_nano.a(lib_a-lseekr.o)
 .debug_frame   0x00001804       0x2c c:/renesas/synergy/e2studio_v2022-04_ssp_v2.3.0/toolchains/gcc_arm/gcc-arm-none-eabi-10.3-2021.10/bin/../lib/gcc/arm-none-eabi/10.3.1/../../../../arm-none-eabi/lib/thumb/v7e-m+fp/hard\libg_nano.a(lib_a-readr.o)
 .debug_frame   0x00001830      0x3a0 c:/renesas/synergy/e2studio_v2022-04_ssp_v2.3.0/toolchains/gcc_arm/gcc-arm-none-eabi-10.3-2021.10/bin/../lib/gcc/arm-none-eabi/10.3.1/../../../../arm-none-eabi/lib/thumb/v7e-m+fp/hard\librdimon_nano.a(rdimon-syscalls.o)
 .debug_frame   0x00001bd0       0x28 c:/renesas/synergy/e2studio_v2022-04_ssp_v2.3.0/toolchains/gcc_arm/gcc-arm-none-eabi-10.3-2021.10/bin/../lib/gcc/arm-none-eabi/10.3.1/../../../../arm-none-eabi/lib/thumb/v7e-m+fp/hard\librdimon_nano.a(rdimon-_exit.o)
 .debug_frame   0x00001bf8       0x40 c:/renesas/synergy/e2studio_v2022-04_ssp_v2.3.0/toolchains/gcc_arm/gcc-arm-none-eabi-10.3-2021.10/bin/../lib/gcc/arm-none-eabi/10.3.1/../../../../arm-none-eabi/lib/thumb/v7e-m+fp/hard\librdimon_nano.a(rdimon-_kill.o)
